
BIOS.elf:     file format elf32-littleriscv
BIOS.elf
architecture: riscv:rv32, flags 0x00000112:
EXEC_P, HAS_SYMS, D_PAGED
start address 0x00000000

Program Header:
    LOAD off    0x00001000 vaddr 0x00000000 paddr 0x00000000 align 2**12
         filesz 0x000026ac memsz 0x000026ac flags r-x
    LOAD off    0x00000000 vaddr 0x40001000 paddr 0x40001000 align 2**12
         filesz 0x00000000 memsz 0x00000294 flags rw-
    LOAD off    0x00004000 vaddr 0x810d0000 paddr 0x810d0000 align 2**12
         filesz 0x00000459 memsz 0x00000459 flags r--

Sections:
Idx Name                               Size      VMA       LMA       File off  Algn  Flags
  0 .vectors                           00000088  00000000  00000000  00001000  2**0  CONTENTS, ALLOC, LOAD, READONLY, CODE
  1 .text                              000003e6  00000088  00000088  00001088  2**1  CONTENTS, ALLOC, LOAD, READONLY, CODE
  2 .text.print_str                    0000005c  0000046e  0000046e  0000146e  2**1  CONTENTS, ALLOC, LOAD, READONLY, CODE
  3 .text.print_hex                    0000003c  000004ca  000004ca  000014ca  2**1  CONTENTS, ALLOC, LOAD, READONLY, CODE
  4 .text.basic_delay                  0000000e  00000506  00000506  00001506  2**1  CONTENTS, ALLOC, LOAD, READONLY, CODE
  5 .text.led_delay                    00000010  00000514  00000514  00001514  2**1  CONTENTS, ALLOC, LOAD, READONLY, CODE
  6 .text.uart_init                    0000001a  00000524  00000524  00001524  2**1  CONTENTS, ALLOC, LOAD, READONLY, CODE
  7 .text.uart_tx_byte                 00000010  0000053e  0000053e  0000153e  2**1  CONTENTS, ALLOC, LOAD, READONLY, CODE
  8 .text.crs32v_skip_atoi             00000036  0000054e  0000054e  0000154e  2**1  CONTENTS, ALLOC, LOAD, READONLY, CODE
  9 .text.crs32v_number                000001a8  00000584  00000584  00001584  2**1  CONTENTS, ALLOC, LOAD, READONLY, CODE
 10 .text.crs32v_vsprintf              00000314  0000072c  0000072c  0000172c  2**1  CONTENTS, ALLOC, LOAD, READONLY, CODE
 11 .text.sprintf                      0000001c  00000a40  00000a40  00001a40  2**1  CONTENTS, ALLOC, LOAD, READONLY, CODE
 12 .text.crs32v_printf                0000005c  00000a5c  00000a5c  00001a5c  2**1  CONTENTS, ALLOC, LOAD, READONLY, CODE
 13 .text.jump_to_app_core             0000000a  00000ab8  00000ab8  00001ab8  2**1  CONTENTS, ALLOC, LOAD, READONLY, CODE
 14 .text.jump_to_fw                   00000002  00000ac2  00000ac2  00001ac2  2**1  CONTENTS, ALLOC, LOAD, READONLY, CODE
 15 .text.int_srv_i2cs                 000001b6  00000ac4  00000ac4  00001ac4  2**1  CONTENTS, ALLOC, LOAD, READONLY, CODE
 16 .text.set_hintn                    00000032  00000c7a  00000c7a  00001c7a  2**1  CONTENTS, ALLOC, LOAD, READONLY, CODE
 17 .text.spim_cmdgen                  000006fc  00000cac  00000cac  00001cac  2**1  CONTENTS, ALLOC, LOAD, READONLY, CODE
 18 .text.ef_rdid                      00000014  000013a8  000013a8  000023a8  2**1  CONTENTS, ALLOC, LOAD, READONLY, CODE
 19 .text.ef_rdsr                      00000012  000013bc  000013bc  000023bc  2**1  CONTENTS, ALLOC, LOAD, READONLY, CODE
 20 .text.ef_wrsr                      00000012  000013ce  000013ce  000023ce  2**1  CONTENTS, ALLOC, LOAD, READONLY, CODE
 21 .text.ef_wrsr_01H_2B               00000012  000013e0  000013e0  000023e0  2**1  CONTENTS, ALLOC, LOAD, READONLY, CODE
 22 .text.ef_wrsr_31H                  00000014  000013f2  000013f2  000023f2  2**1  CONTENTS, ALLOC, LOAD, READONLY, CODE
 23 .text.ef_wren                      00000012  00001406  00001406  00002406  2**1  CONTENTS, ALLOC, LOAD, READONLY, CODE
 24 .text.ef_wait_ready                00000002  00001418  00001418  00002418  2**1  CONTENTS, ALLOC, LOAD, READONLY, CODE
 25 .text.ef_chip_erase                00000014  0000141a  0000141a  0000241a  2**1  CONTENTS, ALLOC, LOAD, READONLY, CODE
 26 .text.ef_sector_erase              00000014  0000142e  0000142e  0000242e  2**1  CONTENTS, ALLOC, LOAD, READONLY, CODE
 27 .text.ef_page_program              00000012  00001442  00001442  00002442  2**1  CONTENTS, ALLOC, LOAD, READONLY, CODE
 28 .text.ef_read                      00000012  00001454  00001454  00002454  2**1  CONTENTS, ALLOC, LOAD, READONLY, CODE
 29 .text.ef_chk_ff                    00000048  00001466  00001466  00002466  2**1  CONTENTS, ALLOC, LOAD, READONLY, CODE
 30 .text._trap_handler_exc            0000019e  000014ae  000014ae  000024ae  2**1  CONTENTS, ALLOC, LOAD, READONLY, CODE
 31 .text._trap_handler_msi            0000001a  0000164c  0000164c  0000264c  2**1  CONTENTS, ALLOC, LOAD, READONLY, CODE
 32 .text._trap_handler_mti            0000001a  00001666  00001666  00002666  2**1  CONTENTS, ALLOC, LOAD, READONLY, CODE
 33 .text._trap_handler_mei            0000001a  00001680  00001680  00002680  2**1  CONTENTS, ALLOC, LOAD, READONLY, CODE
 34 .text._trap_handler_irq_00         0000001a  0000169a  0000169a  0000269a  2**1  CONTENTS, ALLOC, LOAD, READONLY, CODE
 35 .text._trap_handler_irq_01         0000001a  000016b4  000016b4  000026b4  2**1  CONTENTS, ALLOC, LOAD, READONLY, CODE
 36 .text._trap_handler_irq_02         0000001a  000016ce  000016ce  000026ce  2**1  CONTENTS, ALLOC, LOAD, READONLY, CODE
 37 .text._trap_handler_irq_03         0000001a  000016e8  000016e8  000026e8  2**1  CONTENTS, ALLOC, LOAD, READONLY, CODE
 38 .text._trap_handler_irq_04         0000001a  00001702  00001702  00002702  2**1  CONTENTS, ALLOC, LOAD, READONLY, CODE
 39 .text._trap_handler_irq_05         0000001a  0000171c  0000171c  0000271c  2**1  CONTENTS, ALLOC, LOAD, READONLY, CODE
 40 .text._trap_handler_irq_06         0000001a  00001736  00001736  00002736  2**1  CONTENTS, ALLOC, LOAD, READONLY, CODE
 41 .text._trap_handler_irq_07         0000001a  00001750  00001750  00002750  2**1  CONTENTS, ALLOC, LOAD, READONLY, CODE
 42 .text._trap_handler_irq_08         0000001a  0000176a  0000176a  0000276a  2**1  CONTENTS, ALLOC, LOAD, READONLY, CODE
 43 .text._trap_handler_irq_09         0000001a  00001784  00001784  00002784  2**1  CONTENTS, ALLOC, LOAD, READONLY, CODE
 44 .text._trap_handler_irq_10         0000001a  0000179e  0000179e  0000279e  2**1  CONTENTS, ALLOC, LOAD, READONLY, CODE
 45 .text._trap_handler_irq_11         0000001a  000017b8  000017b8  000027b8  2**1  CONTENTS, ALLOC, LOAD, READONLY, CODE
 46 .text._trap_handler_irq_12         0000001a  000017d2  000017d2  000027d2  2**1  CONTENTS, ALLOC, LOAD, READONLY, CODE
 47 .text._trap_handler_irq_13         0000001a  000017ec  000017ec  000027ec  2**1  CONTENTS, ALLOC, LOAD, READONLY, CODE
 48 .text._trap_handler_irq_14         0000001a  00001806  00001806  00002806  2**1  CONTENTS, ALLOC, LOAD, READONLY, CODE
 49 .text._trap_handler_irq_15         0000001a  00001820  00001820  00002820  2**1  CONTENTS, ALLOC, LOAD, READONLY, CODE
 50 .text.csr_check                    00000100  0000183a  0000183a  0000283a  2**1  CONTENTS, ALLOC, LOAD, READONLY, CODE
 51 .text.csr_int_init_fast_int_vector 00000086  0000193a  0000193a  0000293a  2**1  CONTENTS, ALLOC, LOAD, READONLY, CODE
 52 .text.csr_exc_init_stack_check     00000098  000019c0  000019c0  000029c0  2**1  CONTENTS, ALLOC, LOAD, READONLY, CODE
 53 .text.bu_fwld                      00000298  00001a58  00001a58  00002a58  2**1  CONTENTS, ALLOC, LOAD, READONLY, CODE
 54 .text.BIOS_HCMD_CLEAR_INT          000000aa  00001cf0  00001cf0  00002cf0  2**1  CONTENTS, ALLOC, LOAD, READONLY, CODE
 55 .text.BIOS_HCMD_RUN_CPU            0000013a  00001d9a  00001d9a  00002d9a  2**1  CONTENTS, ALLOC, LOAD, READONLY, CODE
 56 .text.BIOS_HCMD_ACC_REG            000001d4  00001ed4  00001ed4  00002ed4  2**1  CONTENTS, ALLOC, LOAD, READONLY, CODE
 57 .text.BIOS_HCMD_SE                 00000054  000020a8  000020a8  000030a8  2**1  CONTENTS, ALLOC, LOAD, READONLY, CODE
 58 .text.BIOS_HCMD_EVAL               000000dc  000020fc  000020fc  000030fc  2**1  CONTENTS, ALLOC, LOAD, READONLY, CODE
 59 .text.crs32v_int_check             00000002  000021d8  000021d8  000031d8  2**1  CONTENTS, ALLOC, LOAD, READONLY, CODE
 60 .text.crs32v_int_check_mtsf        00000006  000021da  000021da  000031da  2**1  CONTENTS, ALLOC, LOAD, READONLY, CODE
 61 .text.crs32v_trap_msi              00000002  000021e0  000021e0  000031e0  2**1  CONTENTS, ALLOC, LOAD, READONLY, CODE
 62 .text.crs32v_trap_mti              00000002  000021e2  000021e2  000031e2  2**1  CONTENTS, ALLOC, LOAD, READONLY, CODE
 63 .text.crs32v_trap_mei              00000022  000021e4  000021e4  000031e4  2**1  CONTENTS, ALLOC, LOAD, READONLY, CODE
 64 .text.crs32v_trap_mfi_00           0000000e  00002206  00002206  00003206  2**1  CONTENTS, ALLOC, LOAD, READONLY, CODE
 65 .text.crs32v_trap_mfi_01           0000000e  00002214  00002214  00003214  2**1  CONTENTS, ALLOC, LOAD, READONLY, CODE
 66 .text.crs32v_trap_mfi_02           0000000e  00002222  00002222  00003222  2**1  CONTENTS, ALLOC, LOAD, READONLY, CODE
 67 .text.crs32v_trap_mfi_03           0000000e  00002230  00002230  00003230  2**1  CONTENTS, ALLOC, LOAD, READONLY, CODE
 68 .text.crs32v_trap_mfi_04           0000000e  0000223e  0000223e  0000323e  2**1  CONTENTS, ALLOC, LOAD, READONLY, CODE
 69 .text.crs32v_trap_mfi_05           00000010  0000224c  0000224c  0000324c  2**1  CONTENTS, ALLOC, LOAD, READONLY, CODE
 70 .text.crs32v_trap_mfi_06           0000000e  0000225c  0000225c  0000325c  2**1  CONTENTS, ALLOC, LOAD, READONLY, CODE
 71 .text.crs32v_trap_mfi_07           00000010  0000226a  0000226a  0000326a  2**1  CONTENTS, ALLOC, LOAD, READONLY, CODE
 72 .text.crs32v_trap_mfi_08           00000010  0000227a  0000227a  0000327a  2**1  CONTENTS, ALLOC, LOAD, READONLY, CODE
 73 .text.crs32v_trap_mfi_09           00000010  0000228a  0000228a  0000328a  2**1  CONTENTS, ALLOC, LOAD, READONLY, CODE
 74 .text.crs32v_trap_mfi_10           00000010  0000229a  0000229a  0000329a  2**1  CONTENTS, ALLOC, LOAD, READONLY, CODE
 75 .text.crs32v_trap_mfi_11           00000014  000022aa  000022aa  000032aa  2**1  CONTENTS, ALLOC, LOAD, READONLY, CODE
 76 .text.crs32v_trap_mfi_12           0000000e  000022be  000022be  000032be  2**1  CONTENTS, ALLOC, LOAD, READONLY, CODE
 77 .text.crs32v_trap_mfi_13           0000000e  000022cc  000022cc  000032cc  2**1  CONTENTS, ALLOC, LOAD, READONLY, CODE
 78 .text.crs32v_trap_mfi_14           0000000e  000022da  000022da  000032da  2**1  CONTENTS, ALLOC, LOAD, READONLY, CODE
 79 .text.crs32v_trap_mfi_15           0000000e  000022e8  000022e8  000032e8  2**1  CONTENTS, ALLOC, LOAD, READONLY, CODE
 80 .text.startup.main                 000000e6  000022f6  000022f6  000032f6  2**1  CONTENTS, ALLOC, LOAD, READONLY, CODE
 81 .text.main_bios                    000002b8  000023dc  000023dc  000033dc  2**1  CONTENTS, ALLOC, LOAD, READONLY, CODE
 82 .text.strnlen                      00000018  00002694  00002694  00003694  2**1  CONTENTS, ALLOC, LOAD, READONLY, CODE
 83 .rodata                            00000459  810d0000  810d0000  00004000  2**2  CONTENTS, ALLOC, LOAD, READONLY, DATA
 84 .bss                               00000294  40001000  40001000  00004000  2**2  ALLOC
 85 .debug_info                        00006416  00000000  00000000  00004459  2**0  CONTENTS, READONLY, DEBUGGING, OCTETS
 86 .debug_abbrev                      00001494  00000000  00000000  0000a86f  2**0  CONTENTS, READONLY, DEBUGGING, OCTETS
 87 .debug_loc                         00001d72  00000000  00000000  0000bd03  2**0  CONTENTS, READONLY, DEBUGGING, OCTETS
 88 .debug_aranges                     00000478  00000000  00000000  0000da78  2**3  CONTENTS, READONLY, DEBUGGING, OCTETS
 89 .debug_ranges                      000005b8  00000000  00000000  0000def0  2**3  CONTENTS, READONLY, DEBUGGING, OCTETS
 90 .debug_line                        000085e5  00000000  00000000  0000e4a8  2**0  CONTENTS, READONLY, DEBUGGING, OCTETS
 91 .debug_str                         00001480  00000000  00000000  00016a8d  2**0  CONTENTS, READONLY, DEBUGGING, OCTETS
 92 .comment                           00000033  00000000  00000000  00017f0d  2**0  CONTENTS, READONLY
 93 .debug_frame                       00000900  00000000  00000000  00017f40  2**2  CONTENTS, READONLY, DEBUGGING, OCTETS
SYMBOL TABLE:
00000000 l    d  .vectors	00000000 .vectors
00000088 l    d  .text	00000000 .text
0000046e l    d  .text.print_str	00000000 .text.print_str
000004ca l    d  .text.print_hex	00000000 .text.print_hex
00000506 l    d  .text.basic_delay	00000000 .text.basic_delay
00000514 l    d  .text.led_delay	00000000 .text.led_delay
00000524 l    d  .text.uart_init	00000000 .text.uart_init
0000053e l    d  .text.uart_tx_byte	00000000 .text.uart_tx_byte
0000054e l    d  .text.crs32v_skip_atoi	00000000 .text.crs32v_skip_atoi
00000584 l    d  .text.crs32v_number	00000000 .text.crs32v_number
0000072c l    d  .text.crs32v_vsprintf	00000000 .text.crs32v_vsprintf
00000a40 l    d  .text.sprintf	00000000 .text.sprintf
00000a5c l    d  .text.crs32v_printf	00000000 .text.crs32v_printf
00000ab8 l    d  .text.jump_to_app_core	00000000 .text.jump_to_app_core
00000ac2 l    d  .text.jump_to_fw	00000000 .text.jump_to_fw
00000ac4 l    d  .text.int_srv_i2cs	00000000 .text.int_srv_i2cs
00000c7a l    d  .text.set_hintn	00000000 .text.set_hintn
00000cac l    d  .text.spim_cmdgen	00000000 .text.spim_cmdgen
000013a8 l    d  .text.ef_rdid	00000000 .text.ef_rdid
000013bc l    d  .text.ef_rdsr	00000000 .text.ef_rdsr
000013ce l    d  .text.ef_wrsr	00000000 .text.ef_wrsr
000013e0 l    d  .text.ef_wrsr_01H_2B	00000000 .text.ef_wrsr_01H_2B
000013f2 l    d  .text.ef_wrsr_31H	00000000 .text.ef_wrsr_31H
00001406 l    d  .text.ef_wren	00000000 .text.ef_wren
00001418 l    d  .text.ef_wait_ready	00000000 .text.ef_wait_ready
0000141a l    d  .text.ef_chip_erase	00000000 .text.ef_chip_erase
0000142e l    d  .text.ef_sector_erase	00000000 .text.ef_sector_erase
00001442 l    d  .text.ef_page_program	00000000 .text.ef_page_program
00001454 l    d  .text.ef_read	00000000 .text.ef_read
00001466 l    d  .text.ef_chk_ff	00000000 .text.ef_chk_ff
000014ae l    d  .text._trap_handler_exc	00000000 .text._trap_handler_exc
0000164c l    d  .text._trap_handler_msi	00000000 .text._trap_handler_msi
00001666 l    d  .text._trap_handler_mti	00000000 .text._trap_handler_mti
00001680 l    d  .text._trap_handler_mei	00000000 .text._trap_handler_mei
0000169a l    d  .text._trap_handler_irq_00	00000000 .text._trap_handler_irq_00
000016b4 l    d  .text._trap_handler_irq_01	00000000 .text._trap_handler_irq_01
000016ce l    d  .text._trap_handler_irq_02	00000000 .text._trap_handler_irq_02
000016e8 l    d  .text._trap_handler_irq_03	00000000 .text._trap_handler_irq_03
00001702 l    d  .text._trap_handler_irq_04	00000000 .text._trap_handler_irq_04
0000171c l    d  .text._trap_handler_irq_05	00000000 .text._trap_handler_irq_05
00001736 l    d  .text._trap_handler_irq_06	00000000 .text._trap_handler_irq_06
00001750 l    d  .text._trap_handler_irq_07	00000000 .text._trap_handler_irq_07
0000176a l    d  .text._trap_handler_irq_08	00000000 .text._trap_handler_irq_08
00001784 l    d  .text._trap_handler_irq_09	00000000 .text._trap_handler_irq_09
0000179e l    d  .text._trap_handler_irq_10	00000000 .text._trap_handler_irq_10
000017b8 l    d  .text._trap_handler_irq_11	00000000 .text._trap_handler_irq_11
000017d2 l    d  .text._trap_handler_irq_12	00000000 .text._trap_handler_irq_12
000017ec l    d  .text._trap_handler_irq_13	00000000 .text._trap_handler_irq_13
00001806 l    d  .text._trap_handler_irq_14	00000000 .text._trap_handler_irq_14
00001820 l    d  .text._trap_handler_irq_15	00000000 .text._trap_handler_irq_15
0000183a l    d  .text.csr_check	00000000 .text.csr_check
0000193a l    d  .text.csr_int_init_fast_int_vector	00000000 .text.csr_int_init_fast_int_vector
000019c0 l    d  .text.csr_exc_init_stack_check	00000000 .text.csr_exc_init_stack_check
00001a58 l    d  .text.bu_fwld	00000000 .text.bu_fwld
00001cf0 l    d  .text.BIOS_HCMD_CLEAR_INT	00000000 .text.BIOS_HCMD_CLEAR_INT
00001d9a l    d  .text.BIOS_HCMD_RUN_CPU	00000000 .text.BIOS_HCMD_RUN_CPU
00001ed4 l    d  .text.BIOS_HCMD_ACC_REG	00000000 .text.BIOS_HCMD_ACC_REG
000020a8 l    d  .text.BIOS_HCMD_SE	00000000 .text.BIOS_HCMD_SE
000020fc l    d  .text.BIOS_HCMD_EVAL	00000000 .text.BIOS_HCMD_EVAL
000021d8 l    d  .text.crs32v_int_check	00000000 .text.crs32v_int_check
000021da l    d  .text.crs32v_int_check_mtsf	00000000 .text.crs32v_int_check_mtsf
000021e0 l    d  .text.crs32v_trap_msi	00000000 .text.crs32v_trap_msi
000021e2 l    d  .text.crs32v_trap_mti	00000000 .text.crs32v_trap_mti
000021e4 l    d  .text.crs32v_trap_mei	00000000 .text.crs32v_trap_mei
00002206 l    d  .text.crs32v_trap_mfi_00	00000000 .text.crs32v_trap_mfi_00
00002214 l    d  .text.crs32v_trap_mfi_01	00000000 .text.crs32v_trap_mfi_01
00002222 l    d  .text.crs32v_trap_mfi_02	00000000 .text.crs32v_trap_mfi_02
00002230 l    d  .text.crs32v_trap_mfi_03	00000000 .text.crs32v_trap_mfi_03
0000223e l    d  .text.crs32v_trap_mfi_04	00000000 .text.crs32v_trap_mfi_04
0000224c l    d  .text.crs32v_trap_mfi_05	00000000 .text.crs32v_trap_mfi_05
0000225c l    d  .text.crs32v_trap_mfi_06	00000000 .text.crs32v_trap_mfi_06
0000226a l    d  .text.crs32v_trap_mfi_07	00000000 .text.crs32v_trap_mfi_07
0000227a l    d  .text.crs32v_trap_mfi_08	00000000 .text.crs32v_trap_mfi_08
0000228a l    d  .text.crs32v_trap_mfi_09	00000000 .text.crs32v_trap_mfi_09
0000229a l    d  .text.crs32v_trap_mfi_10	00000000 .text.crs32v_trap_mfi_10
000022aa l    d  .text.crs32v_trap_mfi_11	00000000 .text.crs32v_trap_mfi_11
000022be l    d  .text.crs32v_trap_mfi_12	00000000 .text.crs32v_trap_mfi_12
000022cc l    d  .text.crs32v_trap_mfi_13	00000000 .text.crs32v_trap_mfi_13
000022da l    d  .text.crs32v_trap_mfi_14	00000000 .text.crs32v_trap_mfi_14
000022e8 l    d  .text.crs32v_trap_mfi_15	00000000 .text.crs32v_trap_mfi_15
000022f6 l    d  .text.startup.main	00000000 .text.startup.main
000023dc l    d  .text.main_bios	00000000 .text.main_bios
00002694 l    d  .text.strnlen	00000000 .text.strnlen
810d0000 l    d  .rodata	00000000 .rodata
40001000 l    d  .bss	00000000 .bss
00000000 l    d  .debug_info	00000000 .debug_info
00000000 l    d  .debug_abbrev	00000000 .debug_abbrev
00000000 l    d  .debug_loc	00000000 .debug_loc
00000000 l    d  .debug_aranges	00000000 .debug_aranges
00000000 l    d  .debug_ranges	00000000 .debug_ranges
00000000 l    d  .debug_line	00000000 .debug_line
00000000 l    d  .debug_str	00000000 .debug_str
00000000 l    d  .comment	00000000 .comment
00000000 l    d  .debug_frame	00000000 .debug_frame
00000000 l    df *ABS*	00000000 ./Src/CRT0_LD_TRAP_CSR/crs32v_crt0.o
00000078 l       *ABS*	00000000 TRAP_STACK_SIZE
00000004 l       .vectors	00000000 _trap_vector_standard
000000a4 l       .text	00000000 crt_trap_exc
00000088 l       .text	00000000 crt_trap_na
000000ba l       .text	00000000 crt_trap_msi
000000d0 l       .text	00000000 crt_trap_mti
000000e6 l       .text	00000000 crt_trap_mei
00000044 l       .vectors	00000000 _trap_vector_custom
00000084 l       .vectors	00000000 _trap_vector_wrong
00000096 l       .text	00000000 crt_trap_wrong
810d0000 l       .rodata	00000000 _msg_trap_na
810d0022 l       .rodata	00000000 _msg_trap_wrong
0000025c l       .text	00000000 crt_trap_push_rf
00000298 l       .text	00000000 crt_trap_pop_rf
0000037e l       .text	00000000 _boot_clear_bss_start
0000039c l       .text	00000000 _boot_libc_init
00000392 l       .text	00000000 _boot_clear_bss_loop
000003a8 l       .text	00000000 _main_exit
810d0043 l       .rodata	00000000 _msg_exit
00000000 l    df *ABS*	00000000 crs32v_print.c
00000000 l    df *ABS*	00000000 crs32v_sys_util.c
00000000 l    df *ABS*	00000000 printf.c
0000054e l     F .text.crs32v_skip_atoi	00000036 crs32v_skip_atoi
00000584 l     F .text.crs32v_number	000001a8 crs32v_number
810d00bc l     O .rodata	00000010 digits.0
00000000 l    df *ABS*	00000000 sys_core.c
00000000 l    df *ABS*	00000000 sys_dmac.c
00000000 l    df *ABS*	00000000 sys_gpio.c
00000000 l    df *ABS*	00000000 sys_i2cs.c
00000000 l    df *ABS*	00000000 sys_iopc.c
00000000 l    df *ABS*	00000000 sys_mon.c
00000000 l    df *ABS*	00000000 sys_spim.c
00000000 l    df *ABS*	00000000 sys_sysc.c
00000000 l    df *ABS*	00000000 crs32v_trap_handler_exc.c
00000000 l    df *ABS*	00000000 crs32v_trap_handler_irq.c
00000000 l    df *ABS*	00000000 crs32v_csr.c
00000000 l    df *ABS*	00000000 bios_bu.c
00000000 l    df *ABS*	00000000 bios_hcmd.c
00000000 l    df *ABS*	00000000 crs32v_int.c
00000000 l    df *ABS*	00000000 global_variable.c
00000000 l    df *ABS*	00000000 main.c
00000000 l    df *ABS*	00000000 main_bios.c
000014ae g     F .text._trap_handler_exc	0000019e _trap_handler_exc
0000223e g     F .text.crs32v_trap_mfi_04	0000000e crs32v_trap_mfi_04
00000ab8 g     F .text.jump_to_app_core	0000000a jump_to_app_core
0000169a g     F .text._trap_handler_irq_00	0000001a _trap_handler_irq_00
0000021a g       .text	00000000 crt_trap_irq_13
0000227a g     F .text.crs32v_trap_mfi_08	00000010 crs32v_trap_mfi_08
00000246 g       .text	00000000 crt_trap_irq_15
000001d8 g       .text	00000000 crt_trap_irq_10
0000179e g     F .text._trap_handler_irq_10	0000001a _trap_handler_irq_10
4000128c g     O .bss	00000004 mem32_fwld_tgt
0000013e g       .text	00000000 crt_trap_irq_03
00001702 g     F .text._trap_handler_irq_04	0000001a _trap_handler_irq_04
000013ce g     F .text.ef_wrsr	00000012 ef_wrsr
0000045e g       .text	00000000 _etext
00000c7a g     F .text.set_hintn	00000032 set_hintn
000013f2 g     F .text.ef_wrsr_31H	00000014 ef_wrsr_31H
0000229a g     F .text.crs32v_trap_mfi_10	00000010 crs32v_trap_mfi_10
0000225c g     F .text.crs32v_trap_mfi_06	0000000e crs32v_trap_mfi_06
0000046e g     F .text.print_str	0000005c print_str
0000046e g       .text	00000000 __DTOR_END__
000013e0 g     F .text.ef_wrsr_01H_2B	00000012 ef_wrsr_01H_2B
0000193a g     F .text.csr_int_init_fast_int_vector	00000086 csr_int_init_fast_int_vector
40001280 g     O .bss	00000004 hwdp8
000001ac g       .text	00000000 crt_trap_irq_08
40001000 g       .bss	00000000 _bss_start
40001274 g     O .bss	00000004 hwdp16_arg
00002222 g     F .text.crs32v_trap_mfi_02	0000000e crs32v_trap_mfi_02
0000141a g     F .text.ef_chip_erase	00000014 ef_chip_erase
00000154 g       .text	00000000 crt_trap_irq_04
00000a5c g     F .text.crs32v_printf	0000005c crs32v_printf
4000127c g     O .bss	00000004 hwdp32_arg
0000183a g     F .text.csr_check	00000100 csr_check
000022da g     F .text.crs32v_trap_mfi_14	0000000e crs32v_trap_mfi_14
000000fc g       .text	00000000 crt_trap_irq_00
000021da g     F .text.crs32v_int_check_mtsf	00000006 crs32v_int_check_mtsf
00001466 g     F .text.ef_chk_ff	00000048 ef_chk_ff
000001ee g       .text	00000000 crt_trap_irq_11
000021e4 g     F .text.crs32v_trap_mei	00000022 crs32v_trap_mei
4000124c g     O .bss	00000002 harg
0000176a g     F .text._trap_handler_irq_08	0000001a _trap_handler_irq_08
0000072c g     F .text.crs32v_vsprintf	00000314 crs32v_vsprintf
000016ce g     F .text._trap_handler_irq_02	0000001a _trap_handler_irq_02
00000cac g     F .text.spim_cmdgen	000006fc spim_cmdgen
000020a8 g     F .text.BIOS_HCMD_SE	00000054 BIOS_HCMD_SE
000002dc g       .text	00000000 _init
4000126c g     O .bss	00000002 htst
00002694 g     F .text.strnlen	00000018 strnlen
40001294 g       .bss	00000000 _bss_end
000013a8 g     F .text.ef_rdid	00000014 ef_rdid
00000112 g       .text	00000000 crt_trap_irq_01
000021e2 g     F .text.crs32v_trap_mti	00000002 crs32v_trap_mti
00001806 g     F .text._trap_handler_irq_14	0000001a _trap_handler_irq_14
00002230 g     F .text.crs32v_trap_mfi_03	0000000e crs32v_trap_mfi_03
000021e0 g     F .text.crs32v_trap_msi	00000002 crs32v_trap_msi
0000016a g       .text	00000000 crt_trap_irq_05
00000ac2 g     F .text.jump_to_fw	00000002 jump_to_fw
4000124e g     O .bss	00000002 haux
000017d2 g     F .text._trap_handler_irq_12	0000001a _trap_handler_irq_12
40001268 g     O .bss	00000004 hrdp8_arg
000022cc g     F .text.crs32v_trap_mfi_13	0000000e crs32v_trap_mfi_13
00001a58 g     F .text.bu_fwld	00000298 bu_fwld
00001418 g     F .text.ef_wait_ready	00000002 ef_wait_ready
000001c2 g       .text	00000000 crt_trap_irq_09
0000045e g       .text	00000000 __CTOR_LIST__
00000524 g     F .text.uart_init	0000001a uart_init
00001820 g     F .text._trap_handler_irq_15	0000001a _trap_handler_irq_15
00000204 g       .text	00000000 crt_trap_irq_12
00000000 g       .vectors	00000000 _start
00000ac4 g     F .text.int_srv_i2cs	000001b6 int_srv_i2cs
000022aa g     F .text.crs32v_trap_mfi_11	00000014 crs32v_trap_mfi_11
00000514 g     F .text.led_delay	00000010 led_delay
00001cf0 g     F .text.BIOS_HCMD_CLEAR_INT	000000aa BIOS_HCMD_CLEAR_INT
00001ed4 g     F .text.BIOS_HCMD_ACC_REG	000001d4 BIOS_HCMD_ACC_REG
00001406 g     F .text.ef_wren	00000012 ef_wren
00000180 g       .text	00000000 crt_trap_irq_06
00001750 g     F .text._trap_handler_irq_07	0000001a _trap_handler_irq_07
40001000 g     O .bss	0000024c gss
000020fc g     F .text.BIOS_HCMD_EVAL	000000dc BIOS_HCMD_EVAL
0000142e g     F .text.ef_sector_erase	00000014 ef_sector_erase
000021d8 g     F .text.crs32v_int_check	00000002 crs32v_int_check
000022e8 g     F .text.crs32v_trap_mfi_15	0000000e crs32v_trap_mfi_15
0000164c g     F .text._trap_handler_msi	0000001a _trap_handler_msi
00001680 g     F .text._trap_handler_mei	0000001a _trap_handler_mei
000003b6 g     F .text	000000a8 memset
000022f6 g     F .text.startup.main	000000e6 main
40001258 g     O .bss	00000004 hrdp16_arg
40001254 g     O .bss	00000004 hrdp16
000016b4 g     F .text._trap_handler_irq_01	0000001a _trap_handler_irq_01
40001278 g     O .bss	00000004 hwdp32
00002206 g     F .text.crs32v_trap_mfi_00	0000000e crs32v_trap_mfi_00
00000466 g       .text	00000000 __CTOR_END__
00001442 g     F .text.ef_page_program	00000012 ef_page_program
00000196 g       .text	00000000 crt_trap_irq_07
000004ca g     F .text.print_hex	0000003c print_hex
000013bc g     F .text.ef_rdsr	00000012 ef_rdsr
40001290 g     O .bss	00000004 mem8_fwld_tgt
00000466 g       .text	00000000 __DTOR_LIST__
000002de g       .text	00000000 _boot_init
400017fc g       .vectors	00000000 _stack_start
000002dc g       .text	00000000 _fini
40001264 g     O .bss	00000004 hrdp8
00000004 g       .vectors	00000000 _trap_vector_table
0000226a g     F .text.crs32v_trap_mfi_07	00000010 crs32v_trap_mfi_07
00000a40 g     F .text.sprintf	0000001c sprintf
40001260 g     O .bss	00000004 hrdp32_arg
000017ec g     F .text._trap_handler_irq_13	0000001a _trap_handler_irq_13
00001454 g     F .text.ef_read	00000012 ef_read
000017b8 g     F .text._trap_handler_irq_11	0000001a _trap_handler_irq_11
000023dc g     F .text.main_bios	000002b8 main_bios
40001252 g     O .bss	00000001 hcmd_trig
0000171c g     F .text._trap_handler_irq_05	0000001a _trap_handler_irq_05
40001250 g     O .bss	00000002 hcmd
000022be g     F .text.crs32v_trap_mfi_12	0000000e crs32v_trap_mfi_12
00001666 g     F .text._trap_handler_mti	0000001a _trap_handler_mti
0000224c g     F .text.crs32v_trap_mfi_05	00000010 crs32v_trap_mfi_05
4000125c g     O .bss	00000004 hrdp32
00000128 g       .text	00000000 crt_trap_irq_02
40001270 g     O .bss	00000004 hwdp16
810d0358 g     O .rodata	00000101 _ctype_
00001736 g     F .text._trap_handler_irq_06	0000001a _trap_handler_irq_06
00000088 g       .text	00000000 _stext
00001d9a g     F .text.BIOS_HCMD_RUN_CPU	0000013a BIOS_HCMD_RUN_CPU
00002214 g     F .text.crs32v_trap_mfi_01	0000000e crs32v_trap_mfi_01
00000506 g     F .text.basic_delay	0000000e basic_delay
40001284 g     O .bss	00000004 hwdp8_arg
000019c0 g     F .text.csr_exc_init_stack_check	00000098 csr_exc_init_stack_check
00000230 g       .text	00000000 crt_trap_irq_14
0000228a g     F .text.crs32v_trap_mfi_09	00000010 crs32v_trap_mfi_09
0000046e g       .text	00000000 _endtext
40001288 g     O .bss	00000004 mem16_fwld_tgt
00001784 g     F .text._trap_handler_irq_09	0000001a _trap_handler_irq_09
0000053e g     F .text.uart_tx_byte	00000010 uart_tx_byte
000016e8 g     F .text._trap_handler_irq_03	0000001a _trap_handler_irq_03



Disassembly of section .vectors:

00000000 <_start>:
_start():
D:\42__Project__CREOSS__SW\51__Lambda\CPUFW\21__BIOS\WS\BIOS\Release/../Src/CRT0_LD_TRAP_CSR/crs32v_crt0.S:87

	#-------------------------------------------------------------
	# reset
	#-------------------------------------------------------------
	_start:
		j	_boot_init			# boot up
   0:	2de0006f          	j	2de <_boot_init>

00000004 <_trap_vector_table>:
_trap_vector_standard():
D:\42__Project__CREOSS__SW\51__Lambda\CPUFW\21__BIOS\WS\BIOS\Release/../Src/CRT0_LD_TRAP_CSR/crs32v_crt0.S:102
		# trap vector table : standard
		#-------------------------------------------
		_trap_vector_standard:

			# 00 : exception handler
			j	crt_trap_exc
   4:	0a00006f          	j	a4 <crt_trap_exc>
D:\42__Project__CREOSS__SW\51__Lambda\CPUFW\21__BIOS\WS\BIOS\Release/../Src/CRT0_LD_TRAP_CSR/crs32v_crt0.S:105

			# 01 ~ 02 : not available
			j	crt_trap_na
   8:	0800006f          	j	88 <_stext>
D:\42__Project__CREOSS__SW\51__Lambda\CPUFW\21__BIOS\WS\BIOS\Release/../Src/CRT0_LD_TRAP_CSR/crs32v_crt0.S:106
			j	crt_trap_na
   c:	07c0006f          	j	88 <_stext>
D:\42__Project__CREOSS__SW\51__Lambda\CPUFW\21__BIOS\WS\BIOS\Release/../Src/CRT0_LD_TRAP_CSR/crs32v_crt0.S:109

			# 03 : machine software interrupt
			j	crt_trap_msi
  10:	0aa0006f          	j	ba <crt_trap_msi>
D:\42__Project__CREOSS__SW\51__Lambda\CPUFW\21__BIOS\WS\BIOS\Release/../Src/CRT0_LD_TRAP_CSR/crs32v_crt0.S:112

			# 04 ~ 06 : not available
			j	crt_trap_na
  14:	0740006f          	j	88 <_stext>
D:\42__Project__CREOSS__SW\51__Lambda\CPUFW\21__BIOS\WS\BIOS\Release/../Src/CRT0_LD_TRAP_CSR/crs32v_crt0.S:113
			j	crt_trap_na
  18:	0700006f          	j	88 <_stext>
D:\42__Project__CREOSS__SW\51__Lambda\CPUFW\21__BIOS\WS\BIOS\Release/../Src/CRT0_LD_TRAP_CSR/crs32v_crt0.S:114
			j	crt_trap_na
  1c:	06c0006f          	j	88 <_stext>
D:\42__Project__CREOSS__SW\51__Lambda\CPUFW\21__BIOS\WS\BIOS\Release/../Src/CRT0_LD_TRAP_CSR/crs32v_crt0.S:117

			# 07 : machine timer interrupt
			j	crt_trap_mti
  20:	0b00006f          	j	d0 <crt_trap_mti>
D:\42__Project__CREOSS__SW\51__Lambda\CPUFW\21__BIOS\WS\BIOS\Release/../Src/CRT0_LD_TRAP_CSR/crs32v_crt0.S:120

			# 08 ~ 10 : not available
			j	crt_trap_na
  24:	0640006f          	j	88 <_stext>
D:\42__Project__CREOSS__SW\51__Lambda\CPUFW\21__BIOS\WS\BIOS\Release/../Src/CRT0_LD_TRAP_CSR/crs32v_crt0.S:121
			j	crt_trap_na
  28:	0600006f          	j	88 <_stext>
D:\42__Project__CREOSS__SW\51__Lambda\CPUFW\21__BIOS\WS\BIOS\Release/../Src/CRT0_LD_TRAP_CSR/crs32v_crt0.S:122
			j	crt_trap_na
  2c:	05c0006f          	j	88 <_stext>
D:\42__Project__CREOSS__SW\51__Lambda\CPUFW\21__BIOS\WS\BIOS\Release/../Src/CRT0_LD_TRAP_CSR/crs32v_crt0.S:125

			# 11 : machine external interrupt
			j	crt_trap_mei
  30:	0b60006f          	j	e6 <crt_trap_mei>
D:\42__Project__CREOSS__SW\51__Lambda\CPUFW\21__BIOS\WS\BIOS\Release/../Src/CRT0_LD_TRAP_CSR/crs32v_crt0.S:128

			# 12 ~ 15 : not available
			j	crt_trap_na
  34:	0540006f          	j	88 <_stext>
D:\42__Project__CREOSS__SW\51__Lambda\CPUFW\21__BIOS\WS\BIOS\Release/../Src/CRT0_LD_TRAP_CSR/crs32v_crt0.S:129
			j	crt_trap_na
  38:	0500006f          	j	88 <_stext>
D:\42__Project__CREOSS__SW\51__Lambda\CPUFW\21__BIOS\WS\BIOS\Release/../Src/CRT0_LD_TRAP_CSR/crs32v_crt0.S:130
			j	crt_trap_na
  3c:	04c0006f          	j	88 <_stext>
D:\42__Project__CREOSS__SW\51__Lambda\CPUFW\21__BIOS\WS\BIOS\Release/../Src/CRT0_LD_TRAP_CSR/crs32v_crt0.S:131
			j	crt_trap_na
  40:	0480006f          	j	88 <_stext>

00000044 <_trap_vector_custom>:
_trap_vector_custom():
D:\42__Project__CREOSS__SW\51__Lambda\CPUFW\21__BIOS\WS\BIOS\Release/../Src/CRT0_LD_TRAP_CSR/crs32v_crt0.S:139
		#-------------------------------------------
		# trap vector table : custom
		#-------------------------------------------
		_trap_vector_custom :

			j	crt_trap_irq_00
  44:	0b80006f          	j	fc <crt_trap_irq_00>
D:\42__Project__CREOSS__SW\51__Lambda\CPUFW\21__BIOS\WS\BIOS\Release/../Src/CRT0_LD_TRAP_CSR/crs32v_crt0.S:140
			j	crt_trap_irq_01
  48:	0ca0006f          	j	112 <crt_trap_irq_01>
D:\42__Project__CREOSS__SW\51__Lambda\CPUFW\21__BIOS\WS\BIOS\Release/../Src/CRT0_LD_TRAP_CSR/crs32v_crt0.S:141
			j	crt_trap_irq_02
  4c:	0dc0006f          	j	128 <crt_trap_irq_02>
D:\42__Project__CREOSS__SW\51__Lambda\CPUFW\21__BIOS\WS\BIOS\Release/../Src/CRT0_LD_TRAP_CSR/crs32v_crt0.S:142
			j	crt_trap_irq_03
  50:	0ee0006f          	j	13e <crt_trap_irq_03>
D:\42__Project__CREOSS__SW\51__Lambda\CPUFW\21__BIOS\WS\BIOS\Release/../Src/CRT0_LD_TRAP_CSR/crs32v_crt0.S:143
			j	crt_trap_irq_04
  54:	1000006f          	j	154 <crt_trap_irq_04>
D:\42__Project__CREOSS__SW\51__Lambda\CPUFW\21__BIOS\WS\BIOS\Release/../Src/CRT0_LD_TRAP_CSR/crs32v_crt0.S:144
			j	crt_trap_irq_05
  58:	1120006f          	j	16a <crt_trap_irq_05>
D:\42__Project__CREOSS__SW\51__Lambda\CPUFW\21__BIOS\WS\BIOS\Release/../Src/CRT0_LD_TRAP_CSR/crs32v_crt0.S:145
			j	crt_trap_irq_06
  5c:	1240006f          	j	180 <crt_trap_irq_06>
D:\42__Project__CREOSS__SW\51__Lambda\CPUFW\21__BIOS\WS\BIOS\Release/../Src/CRT0_LD_TRAP_CSR/crs32v_crt0.S:146
			j	crt_trap_irq_07
  60:	1360006f          	j	196 <crt_trap_irq_07>
D:\42__Project__CREOSS__SW\51__Lambda\CPUFW\21__BIOS\WS\BIOS\Release/../Src/CRT0_LD_TRAP_CSR/crs32v_crt0.S:147
			j	crt_trap_irq_08
  64:	1480006f          	j	1ac <crt_trap_irq_08>
D:\42__Project__CREOSS__SW\51__Lambda\CPUFW\21__BIOS\WS\BIOS\Release/../Src/CRT0_LD_TRAP_CSR/crs32v_crt0.S:148
			j	crt_trap_irq_09
  68:	15a0006f          	j	1c2 <crt_trap_irq_09>
D:\42__Project__CREOSS__SW\51__Lambda\CPUFW\21__BIOS\WS\BIOS\Release/../Src/CRT0_LD_TRAP_CSR/crs32v_crt0.S:149
			j	crt_trap_irq_10
  6c:	16c0006f          	j	1d8 <crt_trap_irq_10>
D:\42__Project__CREOSS__SW\51__Lambda\CPUFW\21__BIOS\WS\BIOS\Release/../Src/CRT0_LD_TRAP_CSR/crs32v_crt0.S:150
			j	crt_trap_irq_11
  70:	17e0006f          	j	1ee <crt_trap_irq_11>
D:\42__Project__CREOSS__SW\51__Lambda\CPUFW\21__BIOS\WS\BIOS\Release/../Src/CRT0_LD_TRAP_CSR/crs32v_crt0.S:151
			j	crt_trap_irq_12
  74:	1900006f          	j	204 <crt_trap_irq_12>
D:\42__Project__CREOSS__SW\51__Lambda\CPUFW\21__BIOS\WS\BIOS\Release/../Src/CRT0_LD_TRAP_CSR/crs32v_crt0.S:152
			j	crt_trap_irq_13
  78:	1a20006f          	j	21a <crt_trap_irq_13>
D:\42__Project__CREOSS__SW\51__Lambda\CPUFW\21__BIOS\WS\BIOS\Release/../Src/CRT0_LD_TRAP_CSR/crs32v_crt0.S:153
			j	crt_trap_irq_14
  7c:	1b40006f          	j	230 <crt_trap_irq_14>
D:\42__Project__CREOSS__SW\51__Lambda\CPUFW\21__BIOS\WS\BIOS\Release/../Src/CRT0_LD_TRAP_CSR/crs32v_crt0.S:154
			j	crt_trap_irq_15
  80:	1c60006f          	j	246 <crt_trap_irq_15>

00000084 <_trap_vector_wrong>:
_trap_vector_wrong():
D:\42__Project__CREOSS__SW\51__Lambda\CPUFW\21__BIOS\WS\BIOS\Release/../Src/CRT0_LD_TRAP_CSR/crs32v_crt0.S:161

		#-------------------------------------------
		# trap vector table : wrong addressing
		#-------------------------------------------	
		_trap_vector_wrong :
			j	crt_trap_wrong
  84:	0120006f          	j	96 <crt_trap_wrong>

Disassembly of section .text:

00000088 <_stext>:
crt_trap_na():
D:\42__Project__CREOSS__SW\51__Lambda\CPUFW\21__BIOS\WS\BIOS\Release/../Src/CRT0_LD_TRAP_CSR/crs32v_crt0.S:220
	#-------------------------------------------------------------
	# trap : not available
	#	- unlimited loop with message
	#-------------------------------------------------------------
	crt_trap_na:
		la	a0, _msg_trap_na
  88:	810d0517          	auipc	a0,0x810d0
  8c:	f7850513          	addi	a0,a0,-136 # 810d0000 <_ctype_+0xfffffca8>
D:\42__Project__CREOSS__SW\51__Lambda\CPUFW\21__BIOS\WS\BIOS\Release/../Src/CRT0_LD_TRAP_CSR/crs32v_crt0.S:221
		jal	ra, print_str
  90:	3de000ef          	jal	ra,46e <__DTOR_END__>
D:\42__Project__CREOSS__SW\51__Lambda\CPUFW\21__BIOS\WS\BIOS\Release/../Src/CRT0_LD_TRAP_CSR/crs32v_crt0.S:222
		j	crt_trap_na
  94:	bfd5                	j	88 <_stext>

00000096 <crt_trap_wrong>:
crt_trap_wrong():
D:\42__Project__CREOSS__SW\51__Lambda\CPUFW\21__BIOS\WS\BIOS\Release/../Src/CRT0_LD_TRAP_CSR/crs32v_crt0.S:232
	# trap : wrong
	#	- this address cannot be executed
	#	- unlimited loop with message
	#-------------------------------------------------------------
	crt_trap_wrong:
		la	a0, _msg_trap_wrong
  96:	810d0517          	auipc	a0,0x810d0
  9a:	f8c50513          	addi	a0,a0,-116 # 810d0022 <_ctype_+0xfffffcca>
D:\42__Project__CREOSS__SW\51__Lambda\CPUFW\21__BIOS\WS\BIOS\Release/../Src/CRT0_LD_TRAP_CSR/crs32v_crt0.S:233
		jal	ra, print_str
  9e:	3d0000ef          	jal	ra,46e <__DTOR_END__>
D:\42__Project__CREOSS__SW\51__Lambda\CPUFW\21__BIOS\WS\BIOS\Release/../Src/CRT0_LD_TRAP_CSR/crs32v_crt0.S:234
		j	crt_trap_wrong
  a2:	bfd5                	j	96 <crt_trap_wrong>

000000a4 <crt_trap_exc>:
crt_trap_exc():
D:\42__Project__CREOSS__SW\51__Lambda\CPUFW\21__BIOS\WS\BIOS\Release/../Src/CRT0_LD_TRAP_CSR/crs32v_crt0.S:242

	#-------------------------------------------------------------
	# trap : exception handler
	#-------------------------------------------------------------
	crt_trap_exc :
		addi	sp, sp, -TRAP_STACK_SIZE		# reserve stack space for trap
  a4:	f8810113          	addi	sp,sp,-120
D:\42__Project__CREOSS__SW\51__Lambda\CPUFW\21__BIOS\WS\BIOS\Release/../Src/CRT0_LD_TRAP_CSR/crs32v_crt0.S:243
		sw	x1, 0*4(sp)				# push X1(=ra) first for call/ret in trap
  a8:	c006                	sw	ra,0(sp)
D:\42__Project__CREOSS__SW\51__Lambda\CPUFW\21__BIOS\WS\BIOS\Release/../Src/CRT0_LD_TRAP_CSR/crs32v_crt0.S:244
		jal	ra, crt_trap_push_rf			# call-short push_rf
  aa:	1b2000ef          	jal	ra,25c <crt_trap_push_rf>
D:\42__Project__CREOSS__SW\51__Lambda\CPUFW\21__BIOS\WS\BIOS\Release/../Src/CRT0_LD_TRAP_CSR/crs32v_crt0.S:245
		la	ra, crt_trap_pop_rf			# save return address of each trap handler
  ae:	00000097          	auipc	ra,0x0
  b2:	1ea08093          	addi	ra,ra,490 # 298 <crt_trap_pop_rf>
D:\42__Project__CREOSS__SW\51__Lambda\CPUFW\21__BIOS\WS\BIOS\Release/../Src/CRT0_LD_TRAP_CSR/crs32v_crt0.S:246
		j	_trap_handler_exc			# jump to each trap handler
  b6:	3f80106f          	j	14ae <_trap_handler_exc>

000000ba <crt_trap_msi>:
crt_trap_msi():
D:\42__Project__CREOSS__SW\51__Lambda\CPUFW\21__BIOS\WS\BIOS\Release/../Src/CRT0_LD_TRAP_CSR/crs32v_crt0.S:255
	#-------------------------------------------------------------
	# trap : machine interrupt handler
	#-------------------------------------------------------------
	
	crt_trap_msi :
		addi	sp, sp, -TRAP_STACK_SIZE		# reserve stack space for trap
  ba:	f8810113          	addi	sp,sp,-120
D:\42__Project__CREOSS__SW\51__Lambda\CPUFW\21__BIOS\WS\BIOS\Release/../Src/CRT0_LD_TRAP_CSR/crs32v_crt0.S:256
		sw	x1, 0*4(sp)				# push X1(=ra) first for call/ret in trap
  be:	c006                	sw	ra,0(sp)
D:\42__Project__CREOSS__SW\51__Lambda\CPUFW\21__BIOS\WS\BIOS\Release/../Src/CRT0_LD_TRAP_CSR/crs32v_crt0.S:257
		jal	ra, crt_trap_push_rf			# call-short push_rf
  c0:	19c000ef          	jal	ra,25c <crt_trap_push_rf>
D:\42__Project__CREOSS__SW\51__Lambda\CPUFW\21__BIOS\WS\BIOS\Release/../Src/CRT0_LD_TRAP_CSR/crs32v_crt0.S:258
		la	ra, crt_trap_pop_rf			# save return address of each trap handler
  c4:	00000097          	auipc	ra,0x0
  c8:	1d408093          	addi	ra,ra,468 # 298 <crt_trap_pop_rf>
D:\42__Project__CREOSS__SW\51__Lambda\CPUFW\21__BIOS\WS\BIOS\Release/../Src/CRT0_LD_TRAP_CSR/crs32v_crt0.S:259
		j	_trap_handler_msi			# jump to each trap handler
  cc:	5800106f          	j	164c <_trap_handler_msi>

000000d0 <crt_trap_mti>:
crt_trap_mti():
D:\42__Project__CREOSS__SW\51__Lambda\CPUFW\21__BIOS\WS\BIOS\Release/../Src/CRT0_LD_TRAP_CSR/crs32v_crt0.S:262
	
	crt_trap_mti :
		addi	sp, sp, -TRAP_STACK_SIZE		# reserve stack space for trap
  d0:	f8810113          	addi	sp,sp,-120
D:\42__Project__CREOSS__SW\51__Lambda\CPUFW\21__BIOS\WS\BIOS\Release/../Src/CRT0_LD_TRAP_CSR/crs32v_crt0.S:263
		sw	x1, 0*4(sp)				# push X1(=ra) first for call/ret in trap
  d4:	c006                	sw	ra,0(sp)
D:\42__Project__CREOSS__SW\51__Lambda\CPUFW\21__BIOS\WS\BIOS\Release/../Src/CRT0_LD_TRAP_CSR/crs32v_crt0.S:264
		jal	ra, crt_trap_push_rf			# call-short push_rf
  d6:	186000ef          	jal	ra,25c <crt_trap_push_rf>
D:\42__Project__CREOSS__SW\51__Lambda\CPUFW\21__BIOS\WS\BIOS\Release/../Src/CRT0_LD_TRAP_CSR/crs32v_crt0.S:265
		la	ra, crt_trap_pop_rf			# save return address of each trap handler
  da:	00000097          	auipc	ra,0x0
  de:	1be08093          	addi	ra,ra,446 # 298 <crt_trap_pop_rf>
D:\42__Project__CREOSS__SW\51__Lambda\CPUFW\21__BIOS\WS\BIOS\Release/../Src/CRT0_LD_TRAP_CSR/crs32v_crt0.S:266
		j	_trap_handler_mti			# jump to each trap handler
  e2:	5840106f          	j	1666 <_trap_handler_mti>

000000e6 <crt_trap_mei>:
crt_trap_mei():
D:\42__Project__CREOSS__SW\51__Lambda\CPUFW\21__BIOS\WS\BIOS\Release/../Src/CRT0_LD_TRAP_CSR/crs32v_crt0.S:269

	crt_trap_mei :
		addi	sp, sp, -TRAP_STACK_SIZE		# reserve stack space for trap
  e6:	f8810113          	addi	sp,sp,-120
D:\42__Project__CREOSS__SW\51__Lambda\CPUFW\21__BIOS\WS\BIOS\Release/../Src/CRT0_LD_TRAP_CSR/crs32v_crt0.S:270
		sw	x1, 0*4(sp)				# push X1(=ra) first for call/ret in trap
  ea:	c006                	sw	ra,0(sp)
D:\42__Project__CREOSS__SW\51__Lambda\CPUFW\21__BIOS\WS\BIOS\Release/../Src/CRT0_LD_TRAP_CSR/crs32v_crt0.S:271
		jal	ra, crt_trap_push_rf			# call-short push_rf
  ec:	170000ef          	jal	ra,25c <crt_trap_push_rf>
D:\42__Project__CREOSS__SW\51__Lambda\CPUFW\21__BIOS\WS\BIOS\Release/../Src/CRT0_LD_TRAP_CSR/crs32v_crt0.S:272
		la	ra, crt_trap_pop_rf			# save return address of each trap handler
  f0:	00000097          	auipc	ra,0x0
  f4:	1a808093          	addi	ra,ra,424 # 298 <crt_trap_pop_rf>
D:\42__Project__CREOSS__SW\51__Lambda\CPUFW\21__BIOS\WS\BIOS\Release/../Src/CRT0_LD_TRAP_CSR/crs32v_crt0.S:273
		j	_trap_handler_mei			# jump to each trap handler
  f8:	5880106f          	j	1680 <_trap_handler_mei>

000000fc <crt_trap_irq_00>:
crt_trap_irq_00():
D:\42__Project__CREOSS__SW\51__Lambda\CPUFW\21__BIOS\WS\BIOS\Release/../Src/CRT0_LD_TRAP_CSR/crs32v_crt0.S:282
	#-------------------------------------------------------------
	# trap : custome interrupt handler
	#-------------------------------------------------------------

	crt_trap_irq_00 :
		addi	sp, sp, -TRAP_STACK_SIZE		# reserve stack space for trap
  fc:	f8810113          	addi	sp,sp,-120
D:\42__Project__CREOSS__SW\51__Lambda\CPUFW\21__BIOS\WS\BIOS\Release/../Src/CRT0_LD_TRAP_CSR/crs32v_crt0.S:283
		sw	x1, 0*4(sp)				# push X1(=ra) first for call/ret in trap
 100:	c006                	sw	ra,0(sp)
D:\42__Project__CREOSS__SW\51__Lambda\CPUFW\21__BIOS\WS\BIOS\Release/../Src/CRT0_LD_TRAP_CSR/crs32v_crt0.S:284
		jal	ra, crt_trap_push_rf			# call-short push_rf
 102:	15a000ef          	jal	ra,25c <crt_trap_push_rf>
D:\42__Project__CREOSS__SW\51__Lambda\CPUFW\21__BIOS\WS\BIOS\Release/../Src/CRT0_LD_TRAP_CSR/crs32v_crt0.S:285
		la	ra, crt_trap_pop_rf			# save return address of each trap handler
 106:	00000097          	auipc	ra,0x0
 10a:	19208093          	addi	ra,ra,402 # 298 <crt_trap_pop_rf>
D:\42__Project__CREOSS__SW\51__Lambda\CPUFW\21__BIOS\WS\BIOS\Release/../Src/CRT0_LD_TRAP_CSR/crs32v_crt0.S:286
		j	_trap_handler_irq_00			# jump to each trap handler
 10e:	58c0106f          	j	169a <_trap_handler_irq_00>

00000112 <crt_trap_irq_01>:
crt_trap_irq_01():
D:\42__Project__CREOSS__SW\51__Lambda\CPUFW\21__BIOS\WS\BIOS\Release/../Src/CRT0_LD_TRAP_CSR/crs32v_crt0.S:289

	crt_trap_irq_01 :
		addi	sp, sp, -TRAP_STACK_SIZE		# reserve stack space for trap
 112:	f8810113          	addi	sp,sp,-120
D:\42__Project__CREOSS__SW\51__Lambda\CPUFW\21__BIOS\WS\BIOS\Release/../Src/CRT0_LD_TRAP_CSR/crs32v_crt0.S:290
		sw	x1, 0*4(sp)				# push X1(=ra) first for call/ret in trap
 116:	c006                	sw	ra,0(sp)
D:\42__Project__CREOSS__SW\51__Lambda\CPUFW\21__BIOS\WS\BIOS\Release/../Src/CRT0_LD_TRAP_CSR/crs32v_crt0.S:291
		jal	ra, crt_trap_push_rf			# call-short push_rf
 118:	144000ef          	jal	ra,25c <crt_trap_push_rf>
D:\42__Project__CREOSS__SW\51__Lambda\CPUFW\21__BIOS\WS\BIOS\Release/../Src/CRT0_LD_TRAP_CSR/crs32v_crt0.S:292
		la	ra, crt_trap_pop_rf			# save return address of each trap handler
 11c:	00000097          	auipc	ra,0x0
 120:	17c08093          	addi	ra,ra,380 # 298 <crt_trap_pop_rf>
D:\42__Project__CREOSS__SW\51__Lambda\CPUFW\21__BIOS\WS\BIOS\Release/../Src/CRT0_LD_TRAP_CSR/crs32v_crt0.S:293
		j	_trap_handler_irq_01			# jump to each trap handler
 124:	5900106f          	j	16b4 <_trap_handler_irq_01>

00000128 <crt_trap_irq_02>:
crt_trap_irq_02():
D:\42__Project__CREOSS__SW\51__Lambda\CPUFW\21__BIOS\WS\BIOS\Release/../Src/CRT0_LD_TRAP_CSR/crs32v_crt0.S:296

	crt_trap_irq_02 :
		addi	sp, sp, -TRAP_STACK_SIZE		# reserve stack space for trap
 128:	f8810113          	addi	sp,sp,-120
D:\42__Project__CREOSS__SW\51__Lambda\CPUFW\21__BIOS\WS\BIOS\Release/../Src/CRT0_LD_TRAP_CSR/crs32v_crt0.S:297
		sw	x1, 0*4(sp)				# push X1(=ra) first for call/ret in trap
 12c:	c006                	sw	ra,0(sp)
D:\42__Project__CREOSS__SW\51__Lambda\CPUFW\21__BIOS\WS\BIOS\Release/../Src/CRT0_LD_TRAP_CSR/crs32v_crt0.S:298
		jal	ra, crt_trap_push_rf			# call-short push_rf
 12e:	12e000ef          	jal	ra,25c <crt_trap_push_rf>
D:\42__Project__CREOSS__SW\51__Lambda\CPUFW\21__BIOS\WS\BIOS\Release/../Src/CRT0_LD_TRAP_CSR/crs32v_crt0.S:299
		la	ra, crt_trap_pop_rf			# save return address of each trap handler
 132:	00000097          	auipc	ra,0x0
 136:	16608093          	addi	ra,ra,358 # 298 <crt_trap_pop_rf>
D:\42__Project__CREOSS__SW\51__Lambda\CPUFW\21__BIOS\WS\BIOS\Release/../Src/CRT0_LD_TRAP_CSR/crs32v_crt0.S:300
		j	_trap_handler_irq_02			# jump to each trap handler
 13a:	5940106f          	j	16ce <_trap_handler_irq_02>

0000013e <crt_trap_irq_03>:
crt_trap_irq_03():
D:\42__Project__CREOSS__SW\51__Lambda\CPUFW\21__BIOS\WS\BIOS\Release/../Src/CRT0_LD_TRAP_CSR/crs32v_crt0.S:303

	crt_trap_irq_03 :
		addi	sp, sp, -TRAP_STACK_SIZE		# reserve stack space for trap
 13e:	f8810113          	addi	sp,sp,-120
D:\42__Project__CREOSS__SW\51__Lambda\CPUFW\21__BIOS\WS\BIOS\Release/../Src/CRT0_LD_TRAP_CSR/crs32v_crt0.S:304
		sw	x1, 0*4(sp)				# push X1(=ra) first for call/ret in trap
 142:	c006                	sw	ra,0(sp)
D:\42__Project__CREOSS__SW\51__Lambda\CPUFW\21__BIOS\WS\BIOS\Release/../Src/CRT0_LD_TRAP_CSR/crs32v_crt0.S:305
		jal	ra, crt_trap_push_rf			# call-short push_rf
 144:	118000ef          	jal	ra,25c <crt_trap_push_rf>
D:\42__Project__CREOSS__SW\51__Lambda\CPUFW\21__BIOS\WS\BIOS\Release/../Src/CRT0_LD_TRAP_CSR/crs32v_crt0.S:306
		la	ra, crt_trap_pop_rf			# save return address of each trap handler
 148:	00000097          	auipc	ra,0x0
 14c:	15008093          	addi	ra,ra,336 # 298 <crt_trap_pop_rf>
D:\42__Project__CREOSS__SW\51__Lambda\CPUFW\21__BIOS\WS\BIOS\Release/../Src/CRT0_LD_TRAP_CSR/crs32v_crt0.S:307
		j	_trap_handler_irq_03			# jump to each trap handler
 150:	5980106f          	j	16e8 <_trap_handler_irq_03>

00000154 <crt_trap_irq_04>:
crt_trap_irq_04():
D:\42__Project__CREOSS__SW\51__Lambda\CPUFW\21__BIOS\WS\BIOS\Release/../Src/CRT0_LD_TRAP_CSR/crs32v_crt0.S:310

	crt_trap_irq_04 :
		addi	sp, sp, -TRAP_STACK_SIZE		# reserve stack space for trap
 154:	f8810113          	addi	sp,sp,-120
D:\42__Project__CREOSS__SW\51__Lambda\CPUFW\21__BIOS\WS\BIOS\Release/../Src/CRT0_LD_TRAP_CSR/crs32v_crt0.S:311
		sw	x1, 0*4(sp)				# push X1(=ra) first for call/ret in trap
 158:	c006                	sw	ra,0(sp)
D:\42__Project__CREOSS__SW\51__Lambda\CPUFW\21__BIOS\WS\BIOS\Release/../Src/CRT0_LD_TRAP_CSR/crs32v_crt0.S:312
		jal	ra, crt_trap_push_rf			# call-short push_rf
 15a:	102000ef          	jal	ra,25c <crt_trap_push_rf>
D:\42__Project__CREOSS__SW\51__Lambda\CPUFW\21__BIOS\WS\BIOS\Release/../Src/CRT0_LD_TRAP_CSR/crs32v_crt0.S:313
		la	ra, crt_trap_pop_rf			# save return address of each trap handler
 15e:	00000097          	auipc	ra,0x0
 162:	13a08093          	addi	ra,ra,314 # 298 <crt_trap_pop_rf>
D:\42__Project__CREOSS__SW\51__Lambda\CPUFW\21__BIOS\WS\BIOS\Release/../Src/CRT0_LD_TRAP_CSR/crs32v_crt0.S:314
		j	_trap_handler_irq_04			# jump to each trap handler
 166:	59c0106f          	j	1702 <_trap_handler_irq_04>

0000016a <crt_trap_irq_05>:
crt_trap_irq_05():
D:\42__Project__CREOSS__SW\51__Lambda\CPUFW\21__BIOS\WS\BIOS\Release/../Src/CRT0_LD_TRAP_CSR/crs32v_crt0.S:317

	crt_trap_irq_05 :
		addi	sp, sp, -TRAP_STACK_SIZE		# reserve stack space for trap
 16a:	f8810113          	addi	sp,sp,-120
D:\42__Project__CREOSS__SW\51__Lambda\CPUFW\21__BIOS\WS\BIOS\Release/../Src/CRT0_LD_TRAP_CSR/crs32v_crt0.S:318
		sw	x1, 0*4(sp)				# push X1(=ra) first for call/ret in trap
 16e:	c006                	sw	ra,0(sp)
D:\42__Project__CREOSS__SW\51__Lambda\CPUFW\21__BIOS\WS\BIOS\Release/../Src/CRT0_LD_TRAP_CSR/crs32v_crt0.S:319
		jal	ra, crt_trap_push_rf			# call-short push_rf
 170:	0ec000ef          	jal	ra,25c <crt_trap_push_rf>
D:\42__Project__CREOSS__SW\51__Lambda\CPUFW\21__BIOS\WS\BIOS\Release/../Src/CRT0_LD_TRAP_CSR/crs32v_crt0.S:320
		la	ra, crt_trap_pop_rf			# save return address of each trap handler
 174:	00000097          	auipc	ra,0x0
 178:	12408093          	addi	ra,ra,292 # 298 <crt_trap_pop_rf>
D:\42__Project__CREOSS__SW\51__Lambda\CPUFW\21__BIOS\WS\BIOS\Release/../Src/CRT0_LD_TRAP_CSR/crs32v_crt0.S:321
		j	_trap_handler_irq_05			# jump to each trap handler
 17c:	5a00106f          	j	171c <_trap_handler_irq_05>

00000180 <crt_trap_irq_06>:
crt_trap_irq_06():
D:\42__Project__CREOSS__SW\51__Lambda\CPUFW\21__BIOS\WS\BIOS\Release/../Src/CRT0_LD_TRAP_CSR/crs32v_crt0.S:324

	crt_trap_irq_06 :
		addi	sp, sp, -TRAP_STACK_SIZE		# reserve stack space for trap
 180:	f8810113          	addi	sp,sp,-120
D:\42__Project__CREOSS__SW\51__Lambda\CPUFW\21__BIOS\WS\BIOS\Release/../Src/CRT0_LD_TRAP_CSR/crs32v_crt0.S:325
		sw	x1, 0*4(sp)				# push X1(=ra) first for call/ret in trap
 184:	c006                	sw	ra,0(sp)
D:\42__Project__CREOSS__SW\51__Lambda\CPUFW\21__BIOS\WS\BIOS\Release/../Src/CRT0_LD_TRAP_CSR/crs32v_crt0.S:326
		jal	ra, crt_trap_push_rf			# call-short push_rf
 186:	0d6000ef          	jal	ra,25c <crt_trap_push_rf>
D:\42__Project__CREOSS__SW\51__Lambda\CPUFW\21__BIOS\WS\BIOS\Release/../Src/CRT0_LD_TRAP_CSR/crs32v_crt0.S:327
		la	ra, crt_trap_pop_rf			# save return address of each trap handler
 18a:	00000097          	auipc	ra,0x0
 18e:	10e08093          	addi	ra,ra,270 # 298 <crt_trap_pop_rf>
D:\42__Project__CREOSS__SW\51__Lambda\CPUFW\21__BIOS\WS\BIOS\Release/../Src/CRT0_LD_TRAP_CSR/crs32v_crt0.S:328
		j	_trap_handler_irq_06			# jump to each trap handler
 192:	5a40106f          	j	1736 <_trap_handler_irq_06>

00000196 <crt_trap_irq_07>:
crt_trap_irq_07():
D:\42__Project__CREOSS__SW\51__Lambda\CPUFW\21__BIOS\WS\BIOS\Release/../Src/CRT0_LD_TRAP_CSR/crs32v_crt0.S:331

	crt_trap_irq_07 :
		addi	sp, sp, -TRAP_STACK_SIZE		# reserve stack space for trap
 196:	f8810113          	addi	sp,sp,-120
D:\42__Project__CREOSS__SW\51__Lambda\CPUFW\21__BIOS\WS\BIOS\Release/../Src/CRT0_LD_TRAP_CSR/crs32v_crt0.S:332
		sw	x1, 0*4(sp)				# push X1(=ra) first for call/ret in trap
 19a:	c006                	sw	ra,0(sp)
D:\42__Project__CREOSS__SW\51__Lambda\CPUFW\21__BIOS\WS\BIOS\Release/../Src/CRT0_LD_TRAP_CSR/crs32v_crt0.S:333
		jal	ra, crt_trap_push_rf			# call-short push_rf
 19c:	0c0000ef          	jal	ra,25c <crt_trap_push_rf>
D:\42__Project__CREOSS__SW\51__Lambda\CPUFW\21__BIOS\WS\BIOS\Release/../Src/CRT0_LD_TRAP_CSR/crs32v_crt0.S:334
		la	ra, crt_trap_pop_rf			# save return address of each trap handler
 1a0:	00000097          	auipc	ra,0x0
 1a4:	0f808093          	addi	ra,ra,248 # 298 <crt_trap_pop_rf>
D:\42__Project__CREOSS__SW\51__Lambda\CPUFW\21__BIOS\WS\BIOS\Release/../Src/CRT0_LD_TRAP_CSR/crs32v_crt0.S:335
		j	_trap_handler_irq_07			# jump to each trap handler
 1a8:	5a80106f          	j	1750 <_trap_handler_irq_07>

000001ac <crt_trap_irq_08>:
crt_trap_irq_08():
D:\42__Project__CREOSS__SW\51__Lambda\CPUFW\21__BIOS\WS\BIOS\Release/../Src/CRT0_LD_TRAP_CSR/crs32v_crt0.S:338

	crt_trap_irq_08 :
		addi	sp, sp, -TRAP_STACK_SIZE		# reserve stack space for trap
 1ac:	f8810113          	addi	sp,sp,-120
D:\42__Project__CREOSS__SW\51__Lambda\CPUFW\21__BIOS\WS\BIOS\Release/../Src/CRT0_LD_TRAP_CSR/crs32v_crt0.S:339
		sw	x1, 0*4(sp)				# push X1(=ra) first for call/ret in trap
 1b0:	c006                	sw	ra,0(sp)
D:\42__Project__CREOSS__SW\51__Lambda\CPUFW\21__BIOS\WS\BIOS\Release/../Src/CRT0_LD_TRAP_CSR/crs32v_crt0.S:340
		jal	ra, crt_trap_push_rf			# call-short push_rf
 1b2:	0aa000ef          	jal	ra,25c <crt_trap_push_rf>
D:\42__Project__CREOSS__SW\51__Lambda\CPUFW\21__BIOS\WS\BIOS\Release/../Src/CRT0_LD_TRAP_CSR/crs32v_crt0.S:341
		la	ra, crt_trap_pop_rf			# save return address of each trap handler
 1b6:	00000097          	auipc	ra,0x0
 1ba:	0e208093          	addi	ra,ra,226 # 298 <crt_trap_pop_rf>
D:\42__Project__CREOSS__SW\51__Lambda\CPUFW\21__BIOS\WS\BIOS\Release/../Src/CRT0_LD_TRAP_CSR/crs32v_crt0.S:342
		j	_trap_handler_irq_08			# jump to each trap handler
 1be:	5ac0106f          	j	176a <_trap_handler_irq_08>

000001c2 <crt_trap_irq_09>:
crt_trap_irq_09():
D:\42__Project__CREOSS__SW\51__Lambda\CPUFW\21__BIOS\WS\BIOS\Release/../Src/CRT0_LD_TRAP_CSR/crs32v_crt0.S:345

	crt_trap_irq_09 :
		addi	sp, sp, -TRAP_STACK_SIZE		# reserve stack space for trap
 1c2:	f8810113          	addi	sp,sp,-120
D:\42__Project__CREOSS__SW\51__Lambda\CPUFW\21__BIOS\WS\BIOS\Release/../Src/CRT0_LD_TRAP_CSR/crs32v_crt0.S:346
		sw	x1, 0*4(sp)				# push X1(=ra) first for call/ret in trap
 1c6:	c006                	sw	ra,0(sp)
D:\42__Project__CREOSS__SW\51__Lambda\CPUFW\21__BIOS\WS\BIOS\Release/../Src/CRT0_LD_TRAP_CSR/crs32v_crt0.S:347
		jal	ra, crt_trap_push_rf			# call-short push_rf
 1c8:	094000ef          	jal	ra,25c <crt_trap_push_rf>
D:\42__Project__CREOSS__SW\51__Lambda\CPUFW\21__BIOS\WS\BIOS\Release/../Src/CRT0_LD_TRAP_CSR/crs32v_crt0.S:348
		la	ra, crt_trap_pop_rf			# save return address of each trap handler
 1cc:	00000097          	auipc	ra,0x0
 1d0:	0cc08093          	addi	ra,ra,204 # 298 <crt_trap_pop_rf>
D:\42__Project__CREOSS__SW\51__Lambda\CPUFW\21__BIOS\WS\BIOS\Release/../Src/CRT0_LD_TRAP_CSR/crs32v_crt0.S:349
		j	_trap_handler_irq_09			# jump to each trap handler
 1d4:	5b00106f          	j	1784 <_trap_handler_irq_09>

000001d8 <crt_trap_irq_10>:
crt_trap_irq_10():
D:\42__Project__CREOSS__SW\51__Lambda\CPUFW\21__BIOS\WS\BIOS\Release/../Src/CRT0_LD_TRAP_CSR/crs32v_crt0.S:352

	crt_trap_irq_10 :
		addi	sp, sp, -TRAP_STACK_SIZE		# reserve stack space for trap
 1d8:	f8810113          	addi	sp,sp,-120
D:\42__Project__CREOSS__SW\51__Lambda\CPUFW\21__BIOS\WS\BIOS\Release/../Src/CRT0_LD_TRAP_CSR/crs32v_crt0.S:353
		sw	x1, 0*4(sp)				# push X1(=ra) first for call/ret in trap
 1dc:	c006                	sw	ra,0(sp)
D:\42__Project__CREOSS__SW\51__Lambda\CPUFW\21__BIOS\WS\BIOS\Release/../Src/CRT0_LD_TRAP_CSR/crs32v_crt0.S:354
		jal	ra, crt_trap_push_rf			# call-short push_rf
 1de:	07e000ef          	jal	ra,25c <crt_trap_push_rf>
D:\42__Project__CREOSS__SW\51__Lambda\CPUFW\21__BIOS\WS\BIOS\Release/../Src/CRT0_LD_TRAP_CSR/crs32v_crt0.S:355
		la	ra, crt_trap_pop_rf			# save return address of each trap handler
 1e2:	00000097          	auipc	ra,0x0
 1e6:	0b608093          	addi	ra,ra,182 # 298 <crt_trap_pop_rf>
D:\42__Project__CREOSS__SW\51__Lambda\CPUFW\21__BIOS\WS\BIOS\Release/../Src/CRT0_LD_TRAP_CSR/crs32v_crt0.S:356
		j	_trap_handler_irq_10			# jump to each trap handler
 1ea:	5b40106f          	j	179e <_trap_handler_irq_10>

000001ee <crt_trap_irq_11>:
crt_trap_irq_11():
D:\42__Project__CREOSS__SW\51__Lambda\CPUFW\21__BIOS\WS\BIOS\Release/../Src/CRT0_LD_TRAP_CSR/crs32v_crt0.S:359

	crt_trap_irq_11 :
		addi	sp, sp, -TRAP_STACK_SIZE		# reserve stack space for trap
 1ee:	f8810113          	addi	sp,sp,-120
D:\42__Project__CREOSS__SW\51__Lambda\CPUFW\21__BIOS\WS\BIOS\Release/../Src/CRT0_LD_TRAP_CSR/crs32v_crt0.S:360
		sw	x1, 0*4(sp)				# push X1(=ra) first for call/ret in trap
 1f2:	c006                	sw	ra,0(sp)
D:\42__Project__CREOSS__SW\51__Lambda\CPUFW\21__BIOS\WS\BIOS\Release/../Src/CRT0_LD_TRAP_CSR/crs32v_crt0.S:361
		jal	ra, crt_trap_push_rf			# call-short push_rf
 1f4:	068000ef          	jal	ra,25c <crt_trap_push_rf>
D:\42__Project__CREOSS__SW\51__Lambda\CPUFW\21__BIOS\WS\BIOS\Release/../Src/CRT0_LD_TRAP_CSR/crs32v_crt0.S:362
		la	ra, crt_trap_pop_rf			# save return address of each trap handler
 1f8:	00000097          	auipc	ra,0x0
 1fc:	0a008093          	addi	ra,ra,160 # 298 <crt_trap_pop_rf>
D:\42__Project__CREOSS__SW\51__Lambda\CPUFW\21__BIOS\WS\BIOS\Release/../Src/CRT0_LD_TRAP_CSR/crs32v_crt0.S:363
		j	_trap_handler_irq_11			# jump to each trap handler
 200:	5b80106f          	j	17b8 <_trap_handler_irq_11>

00000204 <crt_trap_irq_12>:
crt_trap_irq_12():
D:\42__Project__CREOSS__SW\51__Lambda\CPUFW\21__BIOS\WS\BIOS\Release/../Src/CRT0_LD_TRAP_CSR/crs32v_crt0.S:366

	crt_trap_irq_12 :
		addi	sp, sp, -TRAP_STACK_SIZE		# reserve stack space for trap
 204:	f8810113          	addi	sp,sp,-120
D:\42__Project__CREOSS__SW\51__Lambda\CPUFW\21__BIOS\WS\BIOS\Release/../Src/CRT0_LD_TRAP_CSR/crs32v_crt0.S:367
		sw	x1, 0*4(sp)				# push X1(=ra) first for call/ret in trap
 208:	c006                	sw	ra,0(sp)
D:\42__Project__CREOSS__SW\51__Lambda\CPUFW\21__BIOS\WS\BIOS\Release/../Src/CRT0_LD_TRAP_CSR/crs32v_crt0.S:368
		jal	ra, crt_trap_push_rf			# call-short push_rf
 20a:	052000ef          	jal	ra,25c <crt_trap_push_rf>
D:\42__Project__CREOSS__SW\51__Lambda\CPUFW\21__BIOS\WS\BIOS\Release/../Src/CRT0_LD_TRAP_CSR/crs32v_crt0.S:369
		la	ra, crt_trap_pop_rf			# save return address of each trap handler
 20e:	00000097          	auipc	ra,0x0
 212:	08a08093          	addi	ra,ra,138 # 298 <crt_trap_pop_rf>
D:\42__Project__CREOSS__SW\51__Lambda\CPUFW\21__BIOS\WS\BIOS\Release/../Src/CRT0_LD_TRAP_CSR/crs32v_crt0.S:370
		j	_trap_handler_irq_12			# jump to each trap handler
 216:	5bc0106f          	j	17d2 <_trap_handler_irq_12>

0000021a <crt_trap_irq_13>:
crt_trap_irq_13():
D:\42__Project__CREOSS__SW\51__Lambda\CPUFW\21__BIOS\WS\BIOS\Release/../Src/CRT0_LD_TRAP_CSR/crs32v_crt0.S:373

	crt_trap_irq_13 :
		addi	sp, sp, -TRAP_STACK_SIZE		# reserve stack space for trap
 21a:	f8810113          	addi	sp,sp,-120
D:\42__Project__CREOSS__SW\51__Lambda\CPUFW\21__BIOS\WS\BIOS\Release/../Src/CRT0_LD_TRAP_CSR/crs32v_crt0.S:374
		sw	x1, 0*4(sp)				# push X1(=ra) first for call/ret in trap
 21e:	c006                	sw	ra,0(sp)
D:\42__Project__CREOSS__SW\51__Lambda\CPUFW\21__BIOS\WS\BIOS\Release/../Src/CRT0_LD_TRAP_CSR/crs32v_crt0.S:375
		jal	ra, crt_trap_push_rf			# call-short push_rf
 220:	03c000ef          	jal	ra,25c <crt_trap_push_rf>
D:\42__Project__CREOSS__SW\51__Lambda\CPUFW\21__BIOS\WS\BIOS\Release/../Src/CRT0_LD_TRAP_CSR/crs32v_crt0.S:376
		la	ra, crt_trap_pop_rf			# save return address of each trap handler
 224:	00000097          	auipc	ra,0x0
 228:	07408093          	addi	ra,ra,116 # 298 <crt_trap_pop_rf>
D:\42__Project__CREOSS__SW\51__Lambda\CPUFW\21__BIOS\WS\BIOS\Release/../Src/CRT0_LD_TRAP_CSR/crs32v_crt0.S:377
		j	_trap_handler_irq_13			# jump to each trap handler
 22c:	5c00106f          	j	17ec <_trap_handler_irq_13>

00000230 <crt_trap_irq_14>:
crt_trap_irq_14():
D:\42__Project__CREOSS__SW\51__Lambda\CPUFW\21__BIOS\WS\BIOS\Release/../Src/CRT0_LD_TRAP_CSR/crs32v_crt0.S:380

	crt_trap_irq_14 :
		addi	sp, sp, -TRAP_STACK_SIZE		# reserve stack space for trap
 230:	f8810113          	addi	sp,sp,-120
D:\42__Project__CREOSS__SW\51__Lambda\CPUFW\21__BIOS\WS\BIOS\Release/../Src/CRT0_LD_TRAP_CSR/crs32v_crt0.S:381
		sw	x1, 0*4(sp)				# push X1(=ra) first for call/ret in trap
 234:	c006                	sw	ra,0(sp)
D:\42__Project__CREOSS__SW\51__Lambda\CPUFW\21__BIOS\WS\BIOS\Release/../Src/CRT0_LD_TRAP_CSR/crs32v_crt0.S:382
		jal	ra, crt_trap_push_rf			# call-short push_rf
 236:	026000ef          	jal	ra,25c <crt_trap_push_rf>
D:\42__Project__CREOSS__SW\51__Lambda\CPUFW\21__BIOS\WS\BIOS\Release/../Src/CRT0_LD_TRAP_CSR/crs32v_crt0.S:383
		la	ra, crt_trap_pop_rf			# save return address of each trap handler
 23a:	00000097          	auipc	ra,0x0
 23e:	05e08093          	addi	ra,ra,94 # 298 <crt_trap_pop_rf>
D:\42__Project__CREOSS__SW\51__Lambda\CPUFW\21__BIOS\WS\BIOS\Release/../Src/CRT0_LD_TRAP_CSR/crs32v_crt0.S:384
		j	_trap_handler_irq_14			# jump to each trap handler
 242:	5c40106f          	j	1806 <_trap_handler_irq_14>

00000246 <crt_trap_irq_15>:
crt_trap_irq_15():
D:\42__Project__CREOSS__SW\51__Lambda\CPUFW\21__BIOS\WS\BIOS\Release/../Src/CRT0_LD_TRAP_CSR/crs32v_crt0.S:387

	crt_trap_irq_15 :
		addi	sp, sp, -TRAP_STACK_SIZE		# reserve stack space for trap
 246:	f8810113          	addi	sp,sp,-120
D:\42__Project__CREOSS__SW\51__Lambda\CPUFW\21__BIOS\WS\BIOS\Release/../Src/CRT0_LD_TRAP_CSR/crs32v_crt0.S:388
		sw	x1, 0*4(sp)				# push X1(=ra) first for call/ret in trap
 24a:	c006                	sw	ra,0(sp)
D:\42__Project__CREOSS__SW\51__Lambda\CPUFW\21__BIOS\WS\BIOS\Release/../Src/CRT0_LD_TRAP_CSR/crs32v_crt0.S:389
		jal	ra, crt_trap_push_rf			# call-short push_rf
 24c:	010000ef          	jal	ra,25c <crt_trap_push_rf>
D:\42__Project__CREOSS__SW\51__Lambda\CPUFW\21__BIOS\WS\BIOS\Release/../Src/CRT0_LD_TRAP_CSR/crs32v_crt0.S:390
		la	ra, crt_trap_pop_rf			# save return address of each trap handler
 250:	00000097          	auipc	ra,0x0
 254:	04808093          	addi	ra,ra,72 # 298 <crt_trap_pop_rf>
D:\42__Project__CREOSS__SW\51__Lambda\CPUFW\21__BIOS\WS\BIOS\Release/../Src/CRT0_LD_TRAP_CSR/crs32v_crt0.S:391
		j	_trap_handler_irq_15			# jump to each trap handler
 258:	5c80106f          	j	1820 <_trap_handler_irq_15>

0000025c <crt_trap_push_rf>:
crt_trap_push_rf():
D:\42__Project__CREOSS__SW\51__Lambda\CPUFW\21__BIOS\WS\BIOS\Release/../Src/CRT0_LD_TRAP_CSR/crs32v_crt0.S:402
	#	- X0 is tied to 0
	#	- X1 is already pushed before push_rf
	#	- X2 is stack pointer which is global variable
	#-------------------------------------------------------------	
	crt_trap_push_rf:
		sw	 x3,  1*4(sp)
 25c:	c20e                	sw	gp,4(sp)
D:\42__Project__CREOSS__SW\51__Lambda\CPUFW\21__BIOS\WS\BIOS\Release/../Src/CRT0_LD_TRAP_CSR/crs32v_crt0.S:403
		sw	 x4,  2*4(sp)
 25e:	c412                	sw	tp,8(sp)
D:\42__Project__CREOSS__SW\51__Lambda\CPUFW\21__BIOS\WS\BIOS\Release/../Src/CRT0_LD_TRAP_CSR/crs32v_crt0.S:404
		sw	 x5,  3*4(sp)
 260:	c616                	sw	t0,12(sp)
D:\42__Project__CREOSS__SW\51__Lambda\CPUFW\21__BIOS\WS\BIOS\Release/../Src/CRT0_LD_TRAP_CSR/crs32v_crt0.S:405
		sw	 x6,  4*4(sp)
 262:	c81a                	sw	t1,16(sp)
D:\42__Project__CREOSS__SW\51__Lambda\CPUFW\21__BIOS\WS\BIOS\Release/../Src/CRT0_LD_TRAP_CSR/crs32v_crt0.S:406
		sw	 x7,  5*4(sp)
 264:	ca1e                	sw	t2,20(sp)
D:\42__Project__CREOSS__SW\51__Lambda\CPUFW\21__BIOS\WS\BIOS\Release/../Src/CRT0_LD_TRAP_CSR/crs32v_crt0.S:407
		sw	 x8,  6*4(sp)
 266:	cc22                	sw	s0,24(sp)
D:\42__Project__CREOSS__SW\51__Lambda\CPUFW\21__BIOS\WS\BIOS\Release/../Src/CRT0_LD_TRAP_CSR/crs32v_crt0.S:408
		sw	 x9,  7*4(sp)
 268:	ce26                	sw	s1,28(sp)
D:\42__Project__CREOSS__SW\51__Lambda\CPUFW\21__BIOS\WS\BIOS\Release/../Src/CRT0_LD_TRAP_CSR/crs32v_crt0.S:409
		sw	x10,  8*4(sp)
 26a:	d02a                	sw	a0,32(sp)
D:\42__Project__CREOSS__SW\51__Lambda\CPUFW\21__BIOS\WS\BIOS\Release/../Src/CRT0_LD_TRAP_CSR/crs32v_crt0.S:410
		sw	x11,  9*4(sp)
 26c:	d22e                	sw	a1,36(sp)
D:\42__Project__CREOSS__SW\51__Lambda\CPUFW\21__BIOS\WS\BIOS\Release/../Src/CRT0_LD_TRAP_CSR/crs32v_crt0.S:411
		sw	x12, 10*4(sp)
 26e:	d432                	sw	a2,40(sp)
D:\42__Project__CREOSS__SW\51__Lambda\CPUFW\21__BIOS\WS\BIOS\Release/../Src/CRT0_LD_TRAP_CSR/crs32v_crt0.S:412
		sw	x13, 11*4(sp)
 270:	d636                	sw	a3,44(sp)
D:\42__Project__CREOSS__SW\51__Lambda\CPUFW\21__BIOS\WS\BIOS\Release/../Src/CRT0_LD_TRAP_CSR/crs32v_crt0.S:413
		sw	x14, 12*4(sp)
 272:	d83a                	sw	a4,48(sp)
D:\42__Project__CREOSS__SW\51__Lambda\CPUFW\21__BIOS\WS\BIOS\Release/../Src/CRT0_LD_TRAP_CSR/crs32v_crt0.S:414
		sw	x15, 13*4(sp)
 274:	da3e                	sw	a5,52(sp)
D:\42__Project__CREOSS__SW\51__Lambda\CPUFW\21__BIOS\WS\BIOS\Release/../Src/CRT0_LD_TRAP_CSR/crs32v_crt0.S:415
		sw	x16, 14*4(sp)
 276:	dc42                	sw	a6,56(sp)
D:\42__Project__CREOSS__SW\51__Lambda\CPUFW\21__BIOS\WS\BIOS\Release/../Src/CRT0_LD_TRAP_CSR/crs32v_crt0.S:416
		sw	x17, 15*4(sp)
 278:	de46                	sw	a7,60(sp)
D:\42__Project__CREOSS__SW\51__Lambda\CPUFW\21__BIOS\WS\BIOS\Release/../Src/CRT0_LD_TRAP_CSR/crs32v_crt0.S:417
		sw	x18, 16*4(sp)
 27a:	c0ca                	sw	s2,64(sp)
D:\42__Project__CREOSS__SW\51__Lambda\CPUFW\21__BIOS\WS\BIOS\Release/../Src/CRT0_LD_TRAP_CSR/crs32v_crt0.S:418
		sw	x19, 17*4(sp)
 27c:	c2ce                	sw	s3,68(sp)
D:\42__Project__CREOSS__SW\51__Lambda\CPUFW\21__BIOS\WS\BIOS\Release/../Src/CRT0_LD_TRAP_CSR/crs32v_crt0.S:419
		sw	x20, 18*4(sp)
 27e:	c4d2                	sw	s4,72(sp)
D:\42__Project__CREOSS__SW\51__Lambda\CPUFW\21__BIOS\WS\BIOS\Release/../Src/CRT0_LD_TRAP_CSR/crs32v_crt0.S:420
		sw	x21, 19*4(sp)
 280:	c6d6                	sw	s5,76(sp)
D:\42__Project__CREOSS__SW\51__Lambda\CPUFW\21__BIOS\WS\BIOS\Release/../Src/CRT0_LD_TRAP_CSR/crs32v_crt0.S:421
		sw	x22, 20*4(sp)
 282:	c8da                	sw	s6,80(sp)
D:\42__Project__CREOSS__SW\51__Lambda\CPUFW\21__BIOS\WS\BIOS\Release/../Src/CRT0_LD_TRAP_CSR/crs32v_crt0.S:422
		sw	x23, 21*4(sp)
 284:	cade                	sw	s7,84(sp)
D:\42__Project__CREOSS__SW\51__Lambda\CPUFW\21__BIOS\WS\BIOS\Release/../Src/CRT0_LD_TRAP_CSR/crs32v_crt0.S:423
		sw	x24, 22*4(sp)
 286:	cce2                	sw	s8,88(sp)
D:\42__Project__CREOSS__SW\51__Lambda\CPUFW\21__BIOS\WS\BIOS\Release/../Src/CRT0_LD_TRAP_CSR/crs32v_crt0.S:424
		sw	x25, 23*4(sp)
 288:	cee6                	sw	s9,92(sp)
D:\42__Project__CREOSS__SW\51__Lambda\CPUFW\21__BIOS\WS\BIOS\Release/../Src/CRT0_LD_TRAP_CSR/crs32v_crt0.S:425
		sw	x26, 24*4(sp)
 28a:	d0ea                	sw	s10,96(sp)
D:\42__Project__CREOSS__SW\51__Lambda\CPUFW\21__BIOS\WS\BIOS\Release/../Src/CRT0_LD_TRAP_CSR/crs32v_crt0.S:426
		sw	x27, 25*4(sp)
 28c:	d2ee                	sw	s11,100(sp)
D:\42__Project__CREOSS__SW\51__Lambda\CPUFW\21__BIOS\WS\BIOS\Release/../Src/CRT0_LD_TRAP_CSR/crs32v_crt0.S:427
		sw	x28, 26*4(sp)
 28e:	d4f2                	sw	t3,104(sp)
D:\42__Project__CREOSS__SW\51__Lambda\CPUFW\21__BIOS\WS\BIOS\Release/../Src/CRT0_LD_TRAP_CSR/crs32v_crt0.S:428
		sw	x29, 27*4(sp)
 290:	d6f6                	sw	t4,108(sp)
D:\42__Project__CREOSS__SW\51__Lambda\CPUFW\21__BIOS\WS\BIOS\Release/../Src/CRT0_LD_TRAP_CSR/crs32v_crt0.S:429
		sw	x30, 28*4(sp)
 292:	d8fa                	sw	t5,112(sp)
D:\42__Project__CREOSS__SW\51__Lambda\CPUFW\21__BIOS\WS\BIOS\Release/../Src/CRT0_LD_TRAP_CSR/crs32v_crt0.S:430
		sw	x31, 29*4(sp)
 294:	dafe                	sw	t6,116(sp)
D:\42__Project__CREOSS__SW\51__Lambda\CPUFW\21__BIOS\WS\BIOS\Release/../Src/CRT0_LD_TRAP_CSR/crs32v_crt0.S:431
		ret
 296:	8082                	ret

00000298 <crt_trap_pop_rf>:
crt_trap_pop_rf():
D:\42__Project__CREOSS__SW\51__Lambda\CPUFW\21__BIOS\WS\BIOS\Release/../Src/CRT0_LD_TRAP_CSR/crs32v_crt0.S:440
	#	- X0 is tied to 0
	#	- X1 should be popped here
	#	- X2 is stack pointer which is global variable
	#-------------------------------------------------------------	
	crt_trap_pop_rf:
		lw	 x1,  0*4(sp)
 298:	4082                	lw	ra,0(sp)
D:\42__Project__CREOSS__SW\51__Lambda\CPUFW\21__BIOS\WS\BIOS\Release/../Src/CRT0_LD_TRAP_CSR/crs32v_crt0.S:441
		lw	 x3,  1*4(sp)
 29a:	4192                	lw	gp,4(sp)
D:\42__Project__CREOSS__SW\51__Lambda\CPUFW\21__BIOS\WS\BIOS\Release/../Src/CRT0_LD_TRAP_CSR/crs32v_crt0.S:442
		lw	 x4,  2*4(sp)
 29c:	4222                	lw	tp,8(sp)
D:\42__Project__CREOSS__SW\51__Lambda\CPUFW\21__BIOS\WS\BIOS\Release/../Src/CRT0_LD_TRAP_CSR/crs32v_crt0.S:443
		lw	 x5,  3*4(sp)
 29e:	42b2                	lw	t0,12(sp)
D:\42__Project__CREOSS__SW\51__Lambda\CPUFW\21__BIOS\WS\BIOS\Release/../Src/CRT0_LD_TRAP_CSR/crs32v_crt0.S:444
		lw	 x6,  4*4(sp)
 2a0:	4342                	lw	t1,16(sp)
D:\42__Project__CREOSS__SW\51__Lambda\CPUFW\21__BIOS\WS\BIOS\Release/../Src/CRT0_LD_TRAP_CSR/crs32v_crt0.S:445
		lw	 x7,  5*4(sp)
 2a2:	43d2                	lw	t2,20(sp)
D:\42__Project__CREOSS__SW\51__Lambda\CPUFW\21__BIOS\WS\BIOS\Release/../Src/CRT0_LD_TRAP_CSR/crs32v_crt0.S:446
		lw	 x8,  6*4(sp)
 2a4:	4462                	lw	s0,24(sp)
D:\42__Project__CREOSS__SW\51__Lambda\CPUFW\21__BIOS\WS\BIOS\Release/../Src/CRT0_LD_TRAP_CSR/crs32v_crt0.S:447
		lw	 x9,  7*4(sp)
 2a6:	44f2                	lw	s1,28(sp)
D:\42__Project__CREOSS__SW\51__Lambda\CPUFW\21__BIOS\WS\BIOS\Release/../Src/CRT0_LD_TRAP_CSR/crs32v_crt0.S:448
		lw	x10,  8*4(sp)
 2a8:	5502                	lw	a0,32(sp)
D:\42__Project__CREOSS__SW\51__Lambda\CPUFW\21__BIOS\WS\BIOS\Release/../Src/CRT0_LD_TRAP_CSR/crs32v_crt0.S:449
		lw	x11,  9*4(sp)
 2aa:	5592                	lw	a1,36(sp)
D:\42__Project__CREOSS__SW\51__Lambda\CPUFW\21__BIOS\WS\BIOS\Release/../Src/CRT0_LD_TRAP_CSR/crs32v_crt0.S:450
		lw	x12, 10*4(sp)
 2ac:	5622                	lw	a2,40(sp)
D:\42__Project__CREOSS__SW\51__Lambda\CPUFW\21__BIOS\WS\BIOS\Release/../Src/CRT0_LD_TRAP_CSR/crs32v_crt0.S:451
		lw	x13, 11*4(sp)
 2ae:	56b2                	lw	a3,44(sp)
D:\42__Project__CREOSS__SW\51__Lambda\CPUFW\21__BIOS\WS\BIOS\Release/../Src/CRT0_LD_TRAP_CSR/crs32v_crt0.S:452
		lw	x14, 12*4(sp)
 2b0:	5742                	lw	a4,48(sp)
D:\42__Project__CREOSS__SW\51__Lambda\CPUFW\21__BIOS\WS\BIOS\Release/../Src/CRT0_LD_TRAP_CSR/crs32v_crt0.S:453
		lw	x15, 13*4(sp)
 2b2:	57d2                	lw	a5,52(sp)
D:\42__Project__CREOSS__SW\51__Lambda\CPUFW\21__BIOS\WS\BIOS\Release/../Src/CRT0_LD_TRAP_CSR/crs32v_crt0.S:454
		lw	x16, 14*4(sp)
 2b4:	5862                	lw	a6,56(sp)
D:\42__Project__CREOSS__SW\51__Lambda\CPUFW\21__BIOS\WS\BIOS\Release/../Src/CRT0_LD_TRAP_CSR/crs32v_crt0.S:455
		lw	x17, 15*4(sp)
 2b6:	58f2                	lw	a7,60(sp)
D:\42__Project__CREOSS__SW\51__Lambda\CPUFW\21__BIOS\WS\BIOS\Release/../Src/CRT0_LD_TRAP_CSR/crs32v_crt0.S:456
		lw	x18, 16*4(sp)
 2b8:	4906                	lw	s2,64(sp)
D:\42__Project__CREOSS__SW\51__Lambda\CPUFW\21__BIOS\WS\BIOS\Release/../Src/CRT0_LD_TRAP_CSR/crs32v_crt0.S:457
		lw	x19, 17*4(sp)
 2ba:	4996                	lw	s3,68(sp)
D:\42__Project__CREOSS__SW\51__Lambda\CPUFW\21__BIOS\WS\BIOS\Release/../Src/CRT0_LD_TRAP_CSR/crs32v_crt0.S:458
		lw	x20, 18*4(sp)
 2bc:	4a26                	lw	s4,72(sp)
D:\42__Project__CREOSS__SW\51__Lambda\CPUFW\21__BIOS\WS\BIOS\Release/../Src/CRT0_LD_TRAP_CSR/crs32v_crt0.S:459
		lw	x21, 19*4(sp)
 2be:	4ab6                	lw	s5,76(sp)
D:\42__Project__CREOSS__SW\51__Lambda\CPUFW\21__BIOS\WS\BIOS\Release/../Src/CRT0_LD_TRAP_CSR/crs32v_crt0.S:460
		lw	x22, 20*4(sp)
 2c0:	4b46                	lw	s6,80(sp)
D:\42__Project__CREOSS__SW\51__Lambda\CPUFW\21__BIOS\WS\BIOS\Release/../Src/CRT0_LD_TRAP_CSR/crs32v_crt0.S:461
		lw	x23, 21*4(sp)
 2c2:	4bd6                	lw	s7,84(sp)
D:\42__Project__CREOSS__SW\51__Lambda\CPUFW\21__BIOS\WS\BIOS\Release/../Src/CRT0_LD_TRAP_CSR/crs32v_crt0.S:462
		lw	x24, 22*4(sp)
 2c4:	4c66                	lw	s8,88(sp)
D:\42__Project__CREOSS__SW\51__Lambda\CPUFW\21__BIOS\WS\BIOS\Release/../Src/CRT0_LD_TRAP_CSR/crs32v_crt0.S:463
		lw	x25, 23*4(sp)
 2c6:	4cf6                	lw	s9,92(sp)
D:\42__Project__CREOSS__SW\51__Lambda\CPUFW\21__BIOS\WS\BIOS\Release/../Src/CRT0_LD_TRAP_CSR/crs32v_crt0.S:464
		lw	x26, 24*4(sp)
 2c8:	5d06                	lw	s10,96(sp)
D:\42__Project__CREOSS__SW\51__Lambda\CPUFW\21__BIOS\WS\BIOS\Release/../Src/CRT0_LD_TRAP_CSR/crs32v_crt0.S:465
		lw	x27, 25*4(sp)
 2ca:	5d96                	lw	s11,100(sp)
D:\42__Project__CREOSS__SW\51__Lambda\CPUFW\21__BIOS\WS\BIOS\Release/../Src/CRT0_LD_TRAP_CSR/crs32v_crt0.S:466
		lw	x28, 26*4(sp)
 2cc:	5e26                	lw	t3,104(sp)
D:\42__Project__CREOSS__SW\51__Lambda\CPUFW\21__BIOS\WS\BIOS\Release/../Src/CRT0_LD_TRAP_CSR/crs32v_crt0.S:467
		lw	x29, 27*4(sp)
 2ce:	5eb6                	lw	t4,108(sp)
D:\42__Project__CREOSS__SW\51__Lambda\CPUFW\21__BIOS\WS\BIOS\Release/../Src/CRT0_LD_TRAP_CSR/crs32v_crt0.S:468
		lw	x30, 28*4(sp)
 2d0:	5f46                	lw	t5,112(sp)
D:\42__Project__CREOSS__SW\51__Lambda\CPUFW\21__BIOS\WS\BIOS\Release/../Src/CRT0_LD_TRAP_CSR/crs32v_crt0.S:469
		lw	x31, 29*4(sp)
 2d2:	5fd6                	lw	t6,116(sp)
D:\42__Project__CREOSS__SW\51__Lambda\CPUFW\21__BIOS\WS\BIOS\Release/../Src/CRT0_LD_TRAP_CSR/crs32v_crt0.S:470
		addi	sp, sp, TRAP_STACK_SIZE			# remove stack space for trap 
 2d4:	07810113          	addi	sp,sp,120
D:\42__Project__CREOSS__SW\51__Lambda\CPUFW\21__BIOS\WS\BIOS\Release/../Src/CRT0_LD_TRAP_CSR/crs32v_crt0.S:471
		mret						# interrupt enabled automatically
 2d8:	30200073          	mret

000002dc <_fini>:
_init():
D:\42__Project__CREOSS__SW\51__Lambda\CPUFW\21__BIOS\WS\BIOS\Release/../Src/CRT0_LD_TRAP_CSR/crs32v_crt0.S:481
	# C default
	#	no need to do anything because we use init_array/fini_array
	#-------------------------------------------------------------
	_init:
	_fini:
  		ret
 2dc:	8082                	ret

000002de <_boot_init>:
_boot_init():
D:\42__Project__CREOSS__SW\51__Lambda\CPUFW\21__BIOS\WS\BIOS\Release/../Src/CRT0_LD_TRAP_CSR/crs32v_crt0.S:490
	#-------------------------------------------------------------
	# boot initialization
	#-------------------------------------------------------------
	_boot_init:
		# disable global interrupt : CSR.mstatus.MIE=0
		csrci	mstatus, 8
 2de:	30047073          	csrci	mstatus,8
D:\42__Project__CREOSS__SW\51__Lambda\CPUFW\21__BIOS\WS\BIOS\Release/../Src/CRT0_LD_TRAP_CSR/crs32v_crt0.S:493
	
		# set CSR.mtvec for trap vector start address
		la	x2, _trap_vector_table
 2e2:	00000117          	auipc	sp,0x0
 2e6:	d2210113          	addi	sp,sp,-734 # 4 <_trap_vector_table>
D:\42__Project__CREOSS__SW\51__Lambda\CPUFW\21__BIOS\WS\BIOS\Release/../Src/CRT0_LD_TRAP_CSR/crs32v_crt0.S:494
		csrr	x3, mtvec
 2ea:	305021f3          	csrr	gp,mtvec
D:\42__Project__CREOSS__SW\51__Lambda\CPUFW\21__BIOS\WS\BIOS\Release/../Src/CRT0_LD_TRAP_CSR/crs32v_crt0.S:495
		andi	x3, x3, 1
 2ee:	0011f193          	andi	gp,gp,1
D:\42__Project__CREOSS__SW\51__Lambda\CPUFW\21__BIOS\WS\BIOS\Release/../Src/CRT0_LD_TRAP_CSR/crs32v_crt0.S:496
		or	x2, x3, x2
 2f2:	0021e133          	or	sp,gp,sp
D:\42__Project__CREOSS__SW\51__Lambda\CPUFW\21__BIOS\WS\BIOS\Release/../Src/CRT0_LD_TRAP_CSR/crs32v_crt0.S:497
		csrw	mtvec, x2
 2f6:	30511073          	csrw	mtvec,sp
D:\42__Project__CREOSS__SW\51__Lambda\CPUFW\21__BIOS\WS\BIOS\Release/../Src/CRT0_LD_TRAP_CSR/crs32v_crt0.S:500
		
		# clear register files
		mv	 x1, zero
 2fa:	00000093          	li	ra,0
D:\42__Project__CREOSS__SW\51__Lambda\CPUFW\21__BIOS\WS\BIOS\Release/../Src/CRT0_LD_TRAP_CSR/crs32v_crt0.S:501
		mv	 x2, zero
 2fe:	00000113          	li	sp,0
D:\42__Project__CREOSS__SW\51__Lambda\CPUFW\21__BIOS\WS\BIOS\Release/../Src/CRT0_LD_TRAP_CSR/crs32v_crt0.S:502
		mv	 x3, zero
 302:	00000193          	li	gp,0
D:\42__Project__CREOSS__SW\51__Lambda\CPUFW\21__BIOS\WS\BIOS\Release/../Src/CRT0_LD_TRAP_CSR/crs32v_crt0.S:503
		mv	 x4, zero
 306:	00000213          	li	tp,0
D:\42__Project__CREOSS__SW\51__Lambda\CPUFW\21__BIOS\WS\BIOS\Release/../Src/CRT0_LD_TRAP_CSR/crs32v_crt0.S:504
		mv	 x5, zero
 30a:	00000293          	li	t0,0
D:\42__Project__CREOSS__SW\51__Lambda\CPUFW\21__BIOS\WS\BIOS\Release/../Src/CRT0_LD_TRAP_CSR/crs32v_crt0.S:505
		mv	 x6, zero
 30e:	00000313          	li	t1,0
D:\42__Project__CREOSS__SW\51__Lambda\CPUFW\21__BIOS\WS\BIOS\Release/../Src/CRT0_LD_TRAP_CSR/crs32v_crt0.S:506
		mv	 x7, zero
 312:	00000393          	li	t2,0
D:\42__Project__CREOSS__SW\51__Lambda\CPUFW\21__BIOS\WS\BIOS\Release/../Src/CRT0_LD_TRAP_CSR/crs32v_crt0.S:507
		mv	 x8, zero
 316:	00000413          	li	s0,0
D:\42__Project__CREOSS__SW\51__Lambda\CPUFW\21__BIOS\WS\BIOS\Release/../Src/CRT0_LD_TRAP_CSR/crs32v_crt0.S:508
		mv	 x9, zero
 31a:	00000493          	li	s1,0
D:\42__Project__CREOSS__SW\51__Lambda\CPUFW\21__BIOS\WS\BIOS\Release/../Src/CRT0_LD_TRAP_CSR/crs32v_crt0.S:509
		mv	x10, zero
 31e:	00000513          	li	a0,0
D:\42__Project__CREOSS__SW\51__Lambda\CPUFW\21__BIOS\WS\BIOS\Release/../Src/CRT0_LD_TRAP_CSR/crs32v_crt0.S:510
		mv	x11, zero
 322:	00000593          	li	a1,0
D:\42__Project__CREOSS__SW\51__Lambda\CPUFW\21__BIOS\WS\BIOS\Release/../Src/CRT0_LD_TRAP_CSR/crs32v_crt0.S:511
		mv	x12, zero
 326:	00000613          	li	a2,0
D:\42__Project__CREOSS__SW\51__Lambda\CPUFW\21__BIOS\WS\BIOS\Release/../Src/CRT0_LD_TRAP_CSR/crs32v_crt0.S:512
		mv	x13, zero
 32a:	00000693          	li	a3,0
D:\42__Project__CREOSS__SW\51__Lambda\CPUFW\21__BIOS\WS\BIOS\Release/../Src/CRT0_LD_TRAP_CSR/crs32v_crt0.S:513
		mv	x14, zero
 32e:	00000713          	li	a4,0
D:\42__Project__CREOSS__SW\51__Lambda\CPUFW\21__BIOS\WS\BIOS\Release/../Src/CRT0_LD_TRAP_CSR/crs32v_crt0.S:514
		mv	x15, zero
 332:	00000793          	li	a5,0
D:\42__Project__CREOSS__SW\51__Lambda\CPUFW\21__BIOS\WS\BIOS\Release/../Src/CRT0_LD_TRAP_CSR/crs32v_crt0.S:515
		mv	x16, zero
 336:	00000813          	li	a6,0
D:\42__Project__CREOSS__SW\51__Lambda\CPUFW\21__BIOS\WS\BIOS\Release/../Src/CRT0_LD_TRAP_CSR/crs32v_crt0.S:516
		mv	x17, zero
 33a:	00000893          	li	a7,0
D:\42__Project__CREOSS__SW\51__Lambda\CPUFW\21__BIOS\WS\BIOS\Release/../Src/CRT0_LD_TRAP_CSR/crs32v_crt0.S:517
		mv	x18, zero
 33e:	00000913          	li	s2,0
D:\42__Project__CREOSS__SW\51__Lambda\CPUFW\21__BIOS\WS\BIOS\Release/../Src/CRT0_LD_TRAP_CSR/crs32v_crt0.S:518
		mv	x19, zero
 342:	00000993          	li	s3,0
D:\42__Project__CREOSS__SW\51__Lambda\CPUFW\21__BIOS\WS\BIOS\Release/../Src/CRT0_LD_TRAP_CSR/crs32v_crt0.S:519
		mv	x20, zero
 346:	00000a13          	li	s4,0
D:\42__Project__CREOSS__SW\51__Lambda\CPUFW\21__BIOS\WS\BIOS\Release/../Src/CRT0_LD_TRAP_CSR/crs32v_crt0.S:520
		mv	x21, zero
 34a:	00000a93          	li	s5,0
D:\42__Project__CREOSS__SW\51__Lambda\CPUFW\21__BIOS\WS\BIOS\Release/../Src/CRT0_LD_TRAP_CSR/crs32v_crt0.S:521
		mv	x22, zero
 34e:	00000b13          	li	s6,0
D:\42__Project__CREOSS__SW\51__Lambda\CPUFW\21__BIOS\WS\BIOS\Release/../Src/CRT0_LD_TRAP_CSR/crs32v_crt0.S:522
		mv	x23, zero
 352:	00000b93          	li	s7,0
D:\42__Project__CREOSS__SW\51__Lambda\CPUFW\21__BIOS\WS\BIOS\Release/../Src/CRT0_LD_TRAP_CSR/crs32v_crt0.S:523
		mv	x24, zero
 356:	00000c13          	li	s8,0
D:\42__Project__CREOSS__SW\51__Lambda\CPUFW\21__BIOS\WS\BIOS\Release/../Src/CRT0_LD_TRAP_CSR/crs32v_crt0.S:524
		mv	x25, zero
 35a:	00000c93          	li	s9,0
D:\42__Project__CREOSS__SW\51__Lambda\CPUFW\21__BIOS\WS\BIOS\Release/../Src/CRT0_LD_TRAP_CSR/crs32v_crt0.S:525
		mv	x26, zero
 35e:	00000d13          	li	s10,0
D:\42__Project__CREOSS__SW\51__Lambda\CPUFW\21__BIOS\WS\BIOS\Release/../Src/CRT0_LD_TRAP_CSR/crs32v_crt0.S:526
		mv	x27, zero
 362:	00000d93          	li	s11,0
D:\42__Project__CREOSS__SW\51__Lambda\CPUFW\21__BIOS\WS\BIOS\Release/../Src/CRT0_LD_TRAP_CSR/crs32v_crt0.S:527
		mv	x28, zero
 366:	00000e13          	li	t3,0
D:\42__Project__CREOSS__SW\51__Lambda\CPUFW\21__BIOS\WS\BIOS\Release/../Src/CRT0_LD_TRAP_CSR/crs32v_crt0.S:528
		mv	x29, zero
 36a:	00000e93          	li	t4,0
D:\42__Project__CREOSS__SW\51__Lambda\CPUFW\21__BIOS\WS\BIOS\Release/../Src/CRT0_LD_TRAP_CSR/crs32v_crt0.S:529
		mv	x30, zero
 36e:	00000f13          	li	t5,0
D:\42__Project__CREOSS__SW\51__Lambda\CPUFW\21__BIOS\WS\BIOS\Release/../Src/CRT0_LD_TRAP_CSR/crs32v_crt0.S:530
		mv	x31, zero
 372:	00000f93          	li	t6,0
D:\42__Project__CREOSS__SW\51__Lambda\CPUFW\21__BIOS\WS\BIOS\Release/../Src/CRT0_LD_TRAP_CSR/crs32v_crt0.S:533
	
		# set stack pointer
		la	x2, _stack_start
 376:	40001117          	auipc	sp,0x40001
 37a:	48610113          	addi	sp,sp,1158 # 400017fc <_stack_start>

0000037e <_boot_clear_bss_start>:
_boot_clear_bss_start():
D:\42__Project__CREOSS__SW\51__Lambda\CPUFW\21__BIOS\WS\BIOS\Release/../Src/CRT0_LD_TRAP_CSR/crs32v_crt0.S:537
	
		# clear BSS
	_boot_clear_bss_start:
		la	x26, _bss_start
 37e:	40001d17          	auipc	s10,0x40001
 382:	c82d0d13          	addi	s10,s10,-894 # 40001000 <gss>
D:\42__Project__CREOSS__SW\51__Lambda\CPUFW\21__BIOS\WS\BIOS\Release/../Src/CRT0_LD_TRAP_CSR/crs32v_crt0.S:538
		la	x27, _bss_end
 386:	40001d97          	auipc	s11,0x40001
 38a:	f0ed8d93          	addi	s11,s11,-242 # 40001294 <_bss_end>
D:\42__Project__CREOSS__SW\51__Lambda\CPUFW\21__BIOS\WS\BIOS\Release/../Src/CRT0_LD_TRAP_CSR/crs32v_crt0.S:539
		bge	x26, x27, _boot_libc_init
 38e:	01bd5763          	bge	s10,s11,39c <_boot_libc_init>

00000392 <_boot_clear_bss_loop>:
_boot_clear_bss_loop():
D:\42__Project__CREOSS__SW\51__Lambda\CPUFW\21__BIOS\WS\BIOS\Release/../Src/CRT0_LD_TRAP_CSR/crs32v_crt0.S:542
	
	_boot_clear_bss_loop:
		sw	x0, 0(x26)
 392:	000d2023          	sw	zero,0(s10)
D:\42__Project__CREOSS__SW\51__Lambda\CPUFW\21__BIOS\WS\BIOS\Release/../Src/CRT0_LD_TRAP_CSR/crs32v_crt0.S:543
		addi	x26, x26, 4
 396:	0d11                	addi	s10,s10,4
D:\42__Project__CREOSS__SW\51__Lambda\CPUFW\21__BIOS\WS\BIOS\Release/../Src/CRT0_LD_TRAP_CSR/crs32v_crt0.S:544
		ble	x26, x27, _boot_clear_bss_loop
 398:	ffaddde3          	bge	s11,s10,392 <_boot_clear_bss_loop>

0000039c <_boot_libc_init>:
_boot_libc_init():
D:\42__Project__CREOSS__SW\51__Lambda\CPUFW\21__BIOS\WS\BIOS\Release/../Src/CRT0_LD_TRAP_CSR/crs32v_crt0.S:554

		# enable global interrupt : CSR.mstatus.MIE=1
		#csrsi	mstatus, 8			# need to enable in main F/W
	
		# call main program : argc=0, argv=0
		mv	x10, zero
 39c:	00000513          	li	a0,0
D:\42__Project__CREOSS__SW\51__Lambda\CPUFW\21__BIOS\WS\BIOS\Release/../Src/CRT0_LD_TRAP_CSR/crs32v_crt0.S:555
		mv	x11, zero
 3a0:	00000593          	li	a1,0
D:\42__Project__CREOSS__SW\51__Lambda\CPUFW\21__BIOS\WS\BIOS\Release/../Src/CRT0_LD_TRAP_CSR/crs32v_crt0.S:556
		jal	ra, main			# call main
 3a4:	753010ef          	jal	ra,22f6 <main>

000003a8 <_main_exit>:
_main_exit():
D:\42__Project__CREOSS__SW\51__Lambda\CPUFW\21__BIOS\WS\BIOS\Release/../Src/CRT0_LD_TRAP_CSR/crs32v_crt0.S:564
		# 	nothing to do for flushing instruction cache
		#  	because rtl.plc_flush_cache_o will be generated automatically after reset

		# exit
	_main_exit:
		la	a0, _msg_exit
 3a8:	810d0517          	auipc	a0,0x810d0
 3ac:	c9b50513          	addi	a0,a0,-869 # 810d0043 <_ctype_+0xfffffceb>
D:\42__Project__CREOSS__SW\51__Lambda\CPUFW\21__BIOS\WS\BIOS\Release/../Src/CRT0_LD_TRAP_CSR/crs32v_crt0.S:565
		jal	ra, print_str
 3b0:	0be000ef          	jal	ra,46e <__DTOR_END__>
D:\42__Project__CREOSS__SW\51__Lambda\CPUFW\21__BIOS\WS\BIOS\Release/../Src/CRT0_LD_TRAP_CSR/crs32v_crt0.S:566
		j	_main_exit
 3b4:	bfd5                	j	3a8 <_main_exit>

000003b6 <memset>:
memset():
 3b6:	433d                	li	t1,15
 3b8:	872a                	mv	a4,a0
 3ba:	02c37363          	bgeu	t1,a2,3e0 <memset+0x2a>
 3be:	00f77793          	andi	a5,a4,15
 3c2:	efbd                	bnez	a5,440 <memset+0x8a>
 3c4:	e5ad                	bnez	a1,42e <memset+0x78>
 3c6:	ff067693          	andi	a3,a2,-16
 3ca:	8a3d                	andi	a2,a2,15
 3cc:	96ba                	add	a3,a3,a4
 3ce:	c30c                	sw	a1,0(a4)
 3d0:	c34c                	sw	a1,4(a4)
 3d2:	c70c                	sw	a1,8(a4)
 3d4:	c74c                	sw	a1,12(a4)
 3d6:	0741                	addi	a4,a4,16
 3d8:	fed76be3          	bltu	a4,a3,3ce <memset+0x18>
 3dc:	e211                	bnez	a2,3e0 <memset+0x2a>
 3de:	8082                	ret
 3e0:	40c306b3          	sub	a3,t1,a2
 3e4:	068a                	slli	a3,a3,0x2
 3e6:	00000297          	auipc	t0,0x0
 3ea:	9696                	add	a3,a3,t0
 3ec:	00a68067          	jr	10(a3)
 3f0:	00b70723          	sb	a1,14(a4)
 3f4:	00b706a3          	sb	a1,13(a4)
 3f8:	00b70623          	sb	a1,12(a4)
 3fc:	00b705a3          	sb	a1,11(a4)
 400:	00b70523          	sb	a1,10(a4)
 404:	00b704a3          	sb	a1,9(a4)
 408:	00b70423          	sb	a1,8(a4)
 40c:	00b703a3          	sb	a1,7(a4)
 410:	00b70323          	sb	a1,6(a4)
 414:	00b702a3          	sb	a1,5(a4)
 418:	00b70223          	sb	a1,4(a4)
 41c:	00b701a3          	sb	a1,3(a4)
 420:	00b70123          	sb	a1,2(a4)
 424:	00b700a3          	sb	a1,1(a4)
 428:	00b70023          	sb	a1,0(a4)
 42c:	8082                	ret
 42e:	0ff5f593          	zext.b	a1,a1
 432:	00859693          	slli	a3,a1,0x8
 436:	8dd5                	or	a1,a1,a3
 438:	01059693          	slli	a3,a1,0x10
 43c:	8dd5                	or	a1,a1,a3
 43e:	b761                	j	3c6 <memset+0x10>
 440:	00279693          	slli	a3,a5,0x2
 444:	00000297          	auipc	t0,0x0
 448:	9696                	add	a3,a3,t0
 44a:	8286                	mv	t0,ra
 44c:	fa8680e7          	jalr	-88(a3)
 450:	8096                	mv	ra,t0
 452:	17c1                	addi	a5,a5,-16
 454:	8f1d                	sub	a4,a4,a5
 456:	963e                	add	a2,a2,a5
 458:	f8c374e3          	bgeu	t1,a2,3e0 <memset+0x2a>
 45c:	b7a5                	j	3c4 <memset+0xe>

0000045e <__CTOR_LIST__>:
	...

00000466 <__CTOR_END__>:
	...

Disassembly of section .text.print_str:

0000046e <print_str>:
print_str():
D:\42__Project__CREOSS__SW\51__Lambda\CPUFW\21__BIOS\WS\BIOS\Release/../Src/UTIL/crs32v_print.c:14

#include	<global_include.h>


void print_str(const char *p)
{
 46e:	1141                	addi	sp,sp,-16
 470:	c422                	sw	s0,8(sp)
 472:	c226                	sw	s1,4(sp)
 474:	c04a                	sw	s2,0(sp)
 476:	c606                	sw	ra,12(sp)
 478:	842a                	mv	s0,a0
D:\42__Project__CREOSS__SW\51__Lambda\CPUFW\21__BIOS\WS\BIOS\Release/../Src/UTIL/crs32v_print.c:16
	while (*p != '\0') {
		if (*p == '\n') {
 47a:	44a9                	li	s1,10
D:\42__Project__CREOSS__SW\51__Lambda\CPUFW\21__BIOS\WS\BIOS\Release/../Src/UTIL/crs32v_print.c:20
			uart_tx_byte('\r');
			uart_tx_byte(*(p++));
		}
		else if (*p == '\t') {
 47c:	4925                	li	s2,9
D:\42__Project__CREOSS__SW\51__Lambda\CPUFW\21__BIOS\WS\BIOS\Release/../Src/UTIL/crs32v_print.c:15
	while (*p != '\0') {
 47e:	00040503          	lb	a0,0(s0)
 482:	e519                	bnez	a0,490 <print_str+0x22>
D:\42__Project__CREOSS__SW\51__Lambda\CPUFW\21__BIOS\WS\BIOS\Release/../Src/UTIL/crs32v_print.c:33
		}
		else {
			uart_tx_byte(*(p++));
		}
	}
}
 484:	40b2                	lw	ra,12(sp)
 486:	4422                	lw	s0,8(sp)
 488:	4492                	lw	s1,4(sp)
 48a:	4902                	lw	s2,0(sp)
 48c:	0141                	addi	sp,sp,16
 48e:	8082                	ret
D:\42__Project__CREOSS__SW\51__Lambda\CPUFW\21__BIOS\WS\BIOS\Release/../Src/UTIL/crs32v_print.c:18
			uart_tx_byte(*(p++));
 490:	0405                	addi	s0,s0,1
D:\42__Project__CREOSS__SW\51__Lambda\CPUFW\21__BIOS\WS\BIOS\Release/../Src/UTIL/crs32v_print.c:16
		if (*p == '\n') {
 492:	00951863          	bne	a0,s1,4a2 <print_str+0x34>
D:\42__Project__CREOSS__SW\51__Lambda\CPUFW\21__BIOS\WS\BIOS\Release/../Src/UTIL/crs32v_print.c:17
			uart_tx_byte('\r');
 496:	4535                	li	a0,13
 498:	205d                	jal	53e <uart_tx_byte>
D:\42__Project__CREOSS__SW\51__Lambda\CPUFW\21__BIOS\WS\BIOS\Release/../Src/UTIL/crs32v_print.c:18
			uart_tx_byte(*(p++));
 49a:	fff40503          	lb	a0,-1(s0)
D:\42__Project__CREOSS__SW\51__Lambda\CPUFW\21__BIOS\WS\BIOS\Release/../Src/UTIL/crs32v_print.c:30
			uart_tx_byte(*(p++));
 49e:	2045                	jal	53e <uart_tx_byte>
 4a0:	bff9                	j	47e <print_str+0x10>
D:\42__Project__CREOSS__SW\51__Lambda\CPUFW\21__BIOS\WS\BIOS\Release/../Src/UTIL/crs32v_print.c:20
		else if (*p == '\t') {
 4a2:	ff251ee3          	bne	a0,s2,49e <print_str+0x30>
D:\42__Project__CREOSS__SW\51__Lambda\CPUFW\21__BIOS\WS\BIOS\Release/../Src/UTIL/crs32v_print.c:21
			uart_tx_byte(' ');
 4a6:	02000513          	li	a0,32
 4aa:	2851                	jal	53e <uart_tx_byte>
D:\42__Project__CREOSS__SW\51__Lambda\CPUFW\21__BIOS\WS\BIOS\Release/../Src/UTIL/crs32v_print.c:22
			uart_tx_byte(' ');
 4ac:	02000513          	li	a0,32
 4b0:	2079                	jal	53e <uart_tx_byte>
D:\42__Project__CREOSS__SW\51__Lambda\CPUFW\21__BIOS\WS\BIOS\Release/../Src/UTIL/crs32v_print.c:23
			uart_tx_byte(' ');
 4b2:	02000513          	li	a0,32
 4b6:	2061                	jal	53e <uart_tx_byte>
D:\42__Project__CREOSS__SW\51__Lambda\CPUFW\21__BIOS\WS\BIOS\Release/../Src/UTIL/crs32v_print.c:24
			uart_tx_byte(' ');
 4b8:	02000513          	li	a0,32
 4bc:	2049                	jal	53e <uart_tx_byte>
D:\42__Project__CREOSS__SW\51__Lambda\CPUFW\21__BIOS\WS\BIOS\Release/../Src/UTIL/crs32v_print.c:25
			uart_tx_byte(' ');
 4be:	02000513          	li	a0,32
 4c2:	28b5                	jal	53e <uart_tx_byte>
D:\42__Project__CREOSS__SW\51__Lambda\CPUFW\21__BIOS\WS\BIOS\Release/../Src/UTIL/crs32v_print.c:26
			uart_tx_byte(' ');
 4c4:	02000513          	li	a0,32
 4c8:	bfd9                	j	49e <print_str+0x30>

Disassembly of section .text.print_hex:

000004ca <print_hex>:
print_hex():
D:\42__Project__CREOSS__SW\51__Lambda\CPUFW\21__BIOS\WS\BIOS\Release/../Src/UTIL/crs32v_print.c:36

void print_hex(unsigned int val, int digits)
{
 4ca:	1141                	addi	sp,sp,-16
 4cc:	c422                	sw	s0,8(sp)
 4ce:	c04a                	sw	s2,0(sp)
D:\42__Project__CREOSS__SW\51__Lambda\CPUFW\21__BIOS\WS\BIOS\Release/../Src/UTIL/crs32v_print.c:37
	for (int i = (4*digits)-4; i >= 0; i -= 4)
 4d0:	fff58413          	addi	s0,a1,-1
D:\42__Project__CREOSS__SW\51__Lambda\CPUFW\21__BIOS\WS\BIOS\Release/../Src/UTIL/crs32v_print.c:38
		uart_tx_byte("0123456789ABCDEF"[(val >> i) % 16]);
 4d4:	810d0937          	lui	s2,0x810d0
D:\42__Project__CREOSS__SW\51__Lambda\CPUFW\21__BIOS\WS\BIOS\Release/../Src/UTIL/crs32v_print.c:36
{
 4d8:	c226                	sw	s1,4(sp)
 4da:	c606                	sw	ra,12(sp)
 4dc:	84aa                	mv	s1,a0
D:\42__Project__CREOSS__SW\51__Lambda\CPUFW\21__BIOS\WS\BIOS\Release/../Src/UTIL/crs32v_print.c:37
	for (int i = (4*digits)-4; i >= 0; i -= 4)
 4de:	040a                	slli	s0,s0,0x2
D:\42__Project__CREOSS__SW\51__Lambda\CPUFW\21__BIOS\WS\BIOS\Release/../Src/UTIL/crs32v_print.c:38
		uart_tx_byte("0123456789ABCDEF"[(val >> i) % 16]);
 4e0:	05090913          	addi	s2,s2,80 # 810d0050 <_ctype_+0xfffffcf8>
D:\42__Project__CREOSS__SW\51__Lambda\CPUFW\21__BIOS\WS\BIOS\Release/../Src/UTIL/crs32v_print.c:37 (discriminator 1)
	for (int i = (4*digits)-4; i >= 0; i -= 4)
 4e4:	00045863          	bgez	s0,4f4 <print_hex+0x2a>
D:\42__Project__CREOSS__SW\51__Lambda\CPUFW\21__BIOS\WS\BIOS\Release/../Src/UTIL/crs32v_print.c:39
}
 4e8:	40b2                	lw	ra,12(sp)
 4ea:	4422                	lw	s0,8(sp)
 4ec:	4492                	lw	s1,4(sp)
 4ee:	4902                	lw	s2,0(sp)
 4f0:	0141                	addi	sp,sp,16
 4f2:	8082                	ret
D:\42__Project__CREOSS__SW\51__Lambda\CPUFW\21__BIOS\WS\BIOS\Release/../Src/UTIL/crs32v_print.c:38 (discriminator 3)
		uart_tx_byte("0123456789ABCDEF"[(val >> i) % 16]);
 4f4:	0084d7b3          	srl	a5,s1,s0
 4f8:	8bbd                	andi	a5,a5,15
 4fa:	97ca                	add	a5,a5,s2
 4fc:	00078503          	lb	a0,0(a5)
D:\42__Project__CREOSS__SW\51__Lambda\CPUFW\21__BIOS\WS\BIOS\Release/../Src/UTIL/crs32v_print.c:37 (discriminator 3)
	for (int i = (4*digits)-4; i >= 0; i -= 4)
 500:	1471                	addi	s0,s0,-4
D:\42__Project__CREOSS__SW\51__Lambda\CPUFW\21__BIOS\WS\BIOS\Release/../Src/UTIL/crs32v_print.c:38 (discriminator 3)
		uart_tx_byte("0123456789ABCDEF"[(val >> i) % 16]);
 502:	2835                	jal	53e <uart_tx_byte>
D:\42__Project__CREOSS__SW\51__Lambda\CPUFW\21__BIOS\WS\BIOS\Release/../Src/UTIL/crs32v_print.c:37 (discriminator 3)
	for (int i = (4*digits)-4; i >= 0; i -= 4)
 504:	b7c5                	j	4e4 <print_hex+0x1a>

Disassembly of section .text.basic_delay:

00000506 <basic_delay>:
basic_delay():
D:\42__Project__CREOSS__SW\51__Lambda\CPUFW\21__BIOS\WS\BIOS\Release/../Src/UTIL/crs32v_sys_util.c:30
//=====================================================================
// Generals
//=====================================================================
void	basic_delay(unsigned long delay_time)
{
	for (int i=0; i<delay_time; i++) {asm("nop");}
 506:	4781                	li	a5,0
D:\42__Project__CREOSS__SW\51__Lambda\CPUFW\21__BIOS\WS\BIOS\Release/../Src/UTIL/crs32v_sys_util.c:30 (discriminator 1)
 508:	00a79363          	bne	a5,a0,50e <basic_delay+0x8>
D:\42__Project__CREOSS__SW\51__Lambda\CPUFW\21__BIOS\WS\BIOS\Release/../Src/UTIL/crs32v_sys_util.c:31
}
 50c:	8082                	ret
D:\42__Project__CREOSS__SW\51__Lambda\CPUFW\21__BIOS\WS\BIOS\Release/../Src/UTIL/crs32v_sys_util.c:30 (discriminator 3)
	for (int i=0; i<delay_time; i++) {asm("nop");}
 50e:	0001                	nop
 510:	0785                	addi	a5,a5,1
 512:	bfdd                	j	508 <basic_delay+0x2>

Disassembly of section .text.led_delay:

00000514 <led_delay>:
led_delay():
D:\42__Project__CREOSS__SW\51__Lambda\CPUFW\21__BIOS\WS\BIOS\Release/../Src/UTIL/crs32v_sys_util.c:35


void	led_delay()
{
 514:	005b97b7          	lui	a5,0x5b9
 518:	d8078793          	addi	a5,a5,-640 # 5b8d80 <strnlen+0x5b66ec>
D:\42__Project__CREOSS__SW\51__Lambda\CPUFW\21__BIOS\WS\BIOS\Release/../Src/UTIL/crs32v_sys_util.c:39 (discriminator 3)
	#ifdef	BUILD4SIM
		for (int i=0; i<60; i++) {asm("nop");}
	#else
		for (int i=0; i<6000000; i++) {asm("nop");}
 51c:	0001                	nop
 51e:	17fd                	addi	a5,a5,-1
 520:	fff5                	bnez	a5,51c <led_delay+0x8>
D:\42__Project__CREOSS__SW\51__Lambda\CPUFW\21__BIOS\WS\BIOS\Release/../Src/UTIL/crs32v_sys_util.c:41
	#endif
}
 522:	8082                	ret

Disassembly of section .text.uart_init:

00000524 <uart_init>:
uart_init():
D:\42__Project__CREOSS__SW\51__Lambda\CPUFW\21__BIOS\WS\BIOS\Release/../Src/UTIL/crs32v_sys_util.c:65
//---------------------------------------
// UART
//---------------------------------------
void	uart_init()
{
	set_mem(LAMBDA_SPB_UART_INT_SRC	,	0		);		// clear INT_SRC
 524:	810307b7          	lui	a5,0x81030
 528:	0007a223          	sw	zero,4(a5) # 81030004 <_ctype_+0xfff5fcac>
D:\42__Project__CREOSS__SW\51__Lambda\CPUFW\21__BIOS\WS\BIOS\Release/../Src/UTIL/crs32v_sys_util.c:66
	set_mem(LAMBDA_SPB_UART_INT_MSK	,	0x300	);		// clear INT_MSK
 52c:	30000713          	li	a4,768
 530:	c398                	sw	a4,0(a5)
D:\42__Project__CREOSS__SW\51__Lambda\CPUFW\21__BIOS\WS\BIOS\Release/../Src/UTIL/crs32v_sys_util.c:67
	set_mem(LAMBDA_SPB_UART_FLOW	,	53		);		// div_sample
 532:	03500713          	li	a4,53
 536:	cf98                	sw	a4,24(a5)
D:\42__Project__CREOSS__SW\51__Lambda\CPUFW\21__BIOS\WS\BIOS\Release/../Src/UTIL/crs32v_sys_util.c:68
	set_mem(LAMBDA_SPB_UART_CST		, 	1		);		// tx_dma_buf_en, wakeup_en, tx_dma_en, parity_odd1_even0, parity_en=0, uart_en=1
 538:	4705                	li	a4,1
 53a:	cb98                	sw	a4,16(a5)
D:\42__Project__CREOSS__SW\51__Lambda\CPUFW\21__BIOS\WS\BIOS\Release/../Src/UTIL/crs32v_sys_util.c:69
}
 53c:	8082                	ret

Disassembly of section .text.uart_tx_byte:

0000053e <uart_tx_byte>:
uart_tx_byte():
D:\42__Project__CREOSS__SW\51__Lambda\CPUFW\21__BIOS\WS\BIOS\Release/../Src/UTIL/crs32v_sys_util.c:76
void	uart_tx_byte(char wdata)
{
	unsigned int	ready=0;

	while (ready==0){
			ready = 0x1 & get_mem(LAMBDA_SPB_UART_STR);
 53e:	81030737          	lui	a4,0x81030
 542:	475c                	lw	a5,12(a4)
 544:	8b85                	andi	a5,a5,1
D:\42__Project__CREOSS__SW\51__Lambda\CPUFW\21__BIOS\WS\BIOS\Release/../Src/UTIL/crs32v_sys_util.c:75
	while (ready==0){
 546:	dff5                	beqz	a5,542 <uart_tx_byte+0x4>
D:\42__Project__CREOSS__SW\51__Lambda\CPUFW\21__BIOS\WS\BIOS\Release/../Src/UTIL/crs32v_sys_util.c:79
	}

	set_mem(LAMBDA_SPB_UART_TRX_BUF0, (uint32_t)wdata);
 548:	08a72023          	sw	a0,128(a4) # 81030080 <_ctype_+0xfff5fd28>
D:\42__Project__CREOSS__SW\51__Lambda\CPUFW\21__BIOS\WS\BIOS\Release/../Src/UTIL/crs32v_sys_util.c:80
}
 54c:	8082                	ret

Disassembly of section .text.crs32v_skip_atoi:

0000054e <crs32v_skip_atoi>:
crs32v_skip_atoi():
D:\42__Project__CREOSS__SW\51__Lambda\CPUFW\21__BIOS\WS\BIOS\Release/../Src/UTIL/printf.c:25

static int crs32v_skip_atoi(const char **s)
{
	int i = 0;

	while (isdigit(**s))
 54e:	810d06b7          	lui	a3,0x810d0
D:\42__Project__CREOSS__SW\51__Lambda\CPUFW\21__BIOS\WS\BIOS\Release/../Src/UTIL/printf.c:22
{
 552:	872a                	mv	a4,a0
D:\42__Project__CREOSS__SW\51__Lambda\CPUFW\21__BIOS\WS\BIOS\Release/../Src/UTIL/printf.c:25
	while (isdigit(**s))
 554:	35968693          	addi	a3,a3,857 # 810d0359 <_ctype_+0x1>
D:\42__Project__CREOSS__SW\51__Lambda\CPUFW\21__BIOS\WS\BIOS\Release/../Src/UTIL/printf.c:23
	int i = 0;
 558:	4501                	li	a0,0
D:\42__Project__CREOSS__SW\51__Lambda\CPUFW\21__BIOS\WS\BIOS\Release/../Src/UTIL/printf.c:26
		i = i * 10 + *((*s)++) - '0';
 55a:	45a9                	li	a1,10
D:\42__Project__CREOSS__SW\51__Lambda\CPUFW\21__BIOS\WS\BIOS\Release/../Src/UTIL/printf.c:25
	while (isdigit(**s))
 55c:	4310                	lw	a2,0(a4)
 55e:	00060783          	lb	a5,0(a2)
 562:	97b6                	add	a5,a5,a3
 564:	0007c783          	lbu	a5,0(a5)
 568:	8b91                	andi	a5,a5,4
 56a:	e391                	bnez	a5,56e <crs32v_skip_atoi+0x20>
D:\42__Project__CREOSS__SW\51__Lambda\CPUFW\21__BIOS\WS\BIOS\Release/../Src/UTIL/printf.c:28
	return i;
}
 56c:	8082                	ret
D:\42__Project__CREOSS__SW\51__Lambda\CPUFW\21__BIOS\WS\BIOS\Release/../Src/UTIL/printf.c:26
		i = i * 10 + *((*s)++) - '0';
 56e:	00160793          	addi	a5,a2,1
 572:	c31c                	sw	a5,0(a4)
 574:	02b507b3          	mul	a5,a0,a1
 578:	00060503          	lb	a0,0(a2)
 57c:	97aa                	add	a5,a5,a0
 57e:	fd078513          	addi	a0,a5,-48
 582:	bfe9                	j	55c <crs32v_skip_atoi+0xe>

Disassembly of section .text.crs32v_number:

00000584 <crs32v_number>:
crs32v_number():
D:\42__Project__CREOSS__SW\51__Lambda\CPUFW\21__BIOS\WS\BIOS\Release/../Src/UTIL/printf.c:46
n = ((unsigned long) n) / (unsigned) base; \
__res; })

static char *crs32v_number(char *str, long num, int base, int size, int precision,
		    int type)
{
 584:	7119                	addi	sp,sp,-128
 586:	d8ca                	sw	s2,112(sp)
 588:	d2d6                	sw	s5,100(sp)
 58a:	cce2                	sw	s8,88(sp)
 58c:	de86                	sw	ra,124(sp)
 58e:	dca2                	sw	s0,120(sp)
 590:	daa6                	sw	s1,116(sp)
 592:	d6ce                	sw	s3,108(sp)
 594:	d4d2                	sw	s4,104(sp)
 596:	d0da                	sw	s6,96(sp)
 598:	cede                	sw	s7,92(sp)
 59a:	cae6                	sw	s9,84(sp)
D:\42__Project__CREOSS__SW\51__Lambda\CPUFW\21__BIOS\WS\BIOS\Release/../Src/UTIL/printf.c:57
	int i;

	/* locase = 0 or 0x20. ORing digits or letters with 'locase'
	 * produces same digits or (maybe lowercased) letters */
	locase = (type & SMALL);
	if (type & LEFT)
 59c:	0107fc13          	andi	s8,a5,16
D:\42__Project__CREOSS__SW\51__Lambda\CPUFW\21__BIOS\WS\BIOS\Release/../Src/UTIL/printf.c:46
{
 5a0:	882a                	mv	a6,a0
 5a2:	8932                	mv	s2,a2
D:\42__Project__CREOSS__SW\51__Lambda\CPUFW\21__BIOS\WS\BIOS\Release/../Src/UTIL/printf.c:56
	locase = (type & SMALL);
 5a4:	0207fa93          	andi	s5,a5,32
D:\42__Project__CREOSS__SW\51__Lambda\CPUFW\21__BIOS\WS\BIOS\Release/../Src/UTIL/printf.c:57
	if (type & LEFT)
 5a8:	000c0663          	beqz	s8,5b4 <crs32v_number+0x30>
D:\42__Project__CREOSS__SW\51__Lambda\CPUFW\21__BIOS\WS\BIOS\Release/../Src/UTIL/printf.c:58
		type &= ~ZEROPAD;
 5ac:	9bf9                	andi	a5,a5,-2
D:\42__Project__CREOSS__SW\51__Lambda\CPUFW\21__BIOS\WS\BIOS\Release/../Src/UTIL/printf.c:61
	if (base < 2 || base > 16)
		return NULL;
	c = (type & ZEROPAD) ? '0' : ' ';
 5ae:	02000b93          	li	s7,32
 5b2:	a031                	j	5be <crs32v_number+0x3a>
 5b4:	0017f613          	andi	a2,a5,1
 5b8:	03000b93          	li	s7,48
 5bc:	da6d                	beqz	a2,5ae <crs32v_number+0x2a>
D:\42__Project__CREOSS__SW\51__Lambda\CPUFW\21__BIOS\WS\BIOS\Release/../Src/UTIL/printf.c:63 (discriminator 4)
	sign = 0;
	if (type & SIGN) {
 5be:	0027f613          	andi	a2,a5,2
D:\42__Project__CREOSS__SW\51__Lambda\CPUFW\21__BIOS\WS\BIOS\Release/../Src/UTIL/printf.c:62 (discriminator 4)
	sign = 0;
 5c2:	4981                	li	s3,0
D:\42__Project__CREOSS__SW\51__Lambda\CPUFW\21__BIOS\WS\BIOS\Release/../Src/UTIL/printf.c:63 (discriminator 4)
	if (type & SIGN) {
 5c4:	ca01                	beqz	a2,5d4 <crs32v_number+0x50>
D:\42__Project__CREOSS__SW\51__Lambda\CPUFW\21__BIOS\WS\BIOS\Release/../Src/UTIL/printf.c:64
		if (num < 0) {
 5c6:	0e05d363          	bgez	a1,6ac <crs32v_number+0x128>
D:\42__Project__CREOSS__SW\51__Lambda\CPUFW\21__BIOS\WS\BIOS\Release/../Src/UTIL/printf.c:66
			sign = '-';
			num = -num;
 5ca:	40b005b3          	neg	a1,a1
D:\42__Project__CREOSS__SW\51__Lambda\CPUFW\21__BIOS\WS\BIOS\Release/../Src/UTIL/printf.c:67
			size--;
 5ce:	16fd                	addi	a3,a3,-1
D:\42__Project__CREOSS__SW\51__Lambda\CPUFW\21__BIOS\WS\BIOS\Release/../Src/UTIL/printf.c:65
			sign = '-';
 5d0:	02d00993          	li	s3,45
D:\42__Project__CREOSS__SW\51__Lambda\CPUFW\21__BIOS\WS\BIOS\Release/../Src/UTIL/printf.c:76
		} else if (type & SPACE) {
			sign = ' ';
			size--;
		}
	}
	if (type & SPECIAL) {
 5d4:	0407fc93          	andi	s9,a5,64
 5d8:	000c8663          	beqz	s9,5e4 <crs32v_number+0x60>
D:\42__Project__CREOSS__SW\51__Lambda\CPUFW\21__BIOS\WS\BIOS\Release/../Src/UTIL/printf.c:77
		if (base == 16)
 5dc:	4641                	li	a2,16
 5de:	0ec91663          	bne	s2,a2,6ca <crs32v_number+0x146>
D:\42__Project__CREOSS__SW\51__Lambda\CPUFW\21__BIOS\WS\BIOS\Release/../Src/UTIL/printf.c:78
			size -= 2;
 5e2:	16f9                	addi	a3,a3,-2
D:\42__Project__CREOSS__SW\51__Lambda\CPUFW\21__BIOS\WS\BIOS\Release/../Src/UTIL/printf.c:83
		else if (base == 8)
			size--;
	}
	i = 0;
	if (num == 0)
 5e4:	0e059863          	bnez	a1,6d4 <crs32v_number+0x150>
D:\42__Project__CREOSS__SW\51__Lambda\CPUFW\21__BIOS\WS\BIOS\Release/../Src/UTIL/printf.c:84
		tmp[i++] = '0';
 5e8:	03000613          	li	a2,48
 5ec:	00c10623          	sb	a2,12(sp)
 5f0:	4485                	li	s1,1
D:\42__Project__CREOSS__SW\51__Lambda\CPUFW\21__BIOS\WS\BIOS\Release/../Src/UTIL/printf.c:88
	else
		while (num != 0)
			tmp[i++] = (digits[__run_div(num, base)] | locase);
	if (i > precision)
 5f2:	8a26                	mv	s4,s1
 5f4:	00e4d363          	bge	s1,a4,5fa <crs32v_number+0x76>
 5f8:	8a3a                	mv	s4,a4
D:\42__Project__CREOSS__SW\51__Lambda\CPUFW\21__BIOS\WS\BIOS\Release/../Src/UTIL/printf.c:91
		precision = i;
	size -= precision;
	if (!(type & (ZEROPAD + LEFT)))
 5fa:	8bc5                	andi	a5,a5,17
D:\42__Project__CREOSS__SW\51__Lambda\CPUFW\21__BIOS\WS\BIOS\Release/../Src/UTIL/printf.c:90
	size -= precision;
 5fc:	41468433          	sub	s0,a3,s4
D:\42__Project__CREOSS__SW\51__Lambda\CPUFW\21__BIOS\WS\BIOS\Release/../Src/UTIL/printf.c:91
	if (!(type & (ZEROPAD + LEFT)))
 600:	ef99                	bnez	a5,61e <crs32v_number+0x9a>
D:\42__Project__CREOSS__SW\51__Lambda\CPUFW\21__BIOS\WS\BIOS\Release/../Src/UTIL/printf.c:93
		while (size-- > 0)
			*str++ = ' ';
 602:	8b22                	mv	s6,s0
 604:	00045363          	bgez	s0,60a <crs32v_number+0x86>
 608:	4b01                	li	s6,0
 60a:	8542                	mv	a0,a6
 60c:	865a                	mv	a2,s6
 60e:	02000593          	li	a1,32
 612:	3355                	jal	3b6 <memset>
 614:	147d                	addi	s0,s0,-1
 616:	01650833          	add	a6,a0,s6
D:\42__Project__CREOSS__SW\51__Lambda\CPUFW\21__BIOS\WS\BIOS\Release/../Src/UTIL/printf.c:92
		while (size-- > 0)
 61a:	41640433          	sub	s0,s0,s6
D:\42__Project__CREOSS__SW\51__Lambda\CPUFW\21__BIOS\WS\BIOS\Release/../Src/UTIL/printf.c:94
	if (sign)
 61e:	00098563          	beqz	s3,628 <crs32v_number+0xa4>
D:\42__Project__CREOSS__SW\51__Lambda\CPUFW\21__BIOS\WS\BIOS\Release/../Src/UTIL/printf.c:95
		*str++ = sign;
 622:	01380023          	sb	s3,0(a6)
 626:	0805                	addi	a6,a6,1
D:\42__Project__CREOSS__SW\51__Lambda\CPUFW\21__BIOS\WS\BIOS\Release/../Src/UTIL/printf.c:96
	if (type & SPECIAL) {
 628:	000c8a63          	beqz	s9,63c <crs32v_number+0xb8>
D:\42__Project__CREOSS__SW\51__Lambda\CPUFW\21__BIOS\WS\BIOS\Release/../Src/UTIL/printf.c:97
		if (base == 8)
 62c:	47a1                	li	a5,8
 62e:	0cf91a63          	bne	s2,a5,702 <crs32v_number+0x17e>
D:\42__Project__CREOSS__SW\51__Lambda\CPUFW\21__BIOS\WS\BIOS\Release/../Src/UTIL/printf.c:98
			*str++ = '0';
 632:	03000793          	li	a5,48
 636:	00f80023          	sb	a5,0(a6)
 63a:	0805                	addi	a6,a6,1
D:\42__Project__CREOSS__SW\51__Lambda\CPUFW\21__BIOS\WS\BIOS\Release/../Src/UTIL/printf.c:104
		else if (base == 16) {
			*str++ = '0';
			*str++ = ('X' | locase);
		}
	}
	if (!(type & LEFT))
 63c:	000c1f63          	bnez	s8,65a <crs32v_number+0xd6>
D:\42__Project__CREOSS__SW\51__Lambda\CPUFW\21__BIOS\WS\BIOS\Release/../Src/UTIL/printf.c:106
		while (size-- > 0)
			*str++ = c;
 640:	8922                	mv	s2,s0
 642:	00045363          	bgez	s0,648 <crs32v_number+0xc4>
 646:	4901                	li	s2,0
 648:	8542                	mv	a0,a6
 64a:	864a                	mv	a2,s2
 64c:	85de                	mv	a1,s7
 64e:	33a5                	jal	3b6 <memset>
 650:	147d                	addi	s0,s0,-1
 652:	01250833          	add	a6,a0,s2
D:\42__Project__CREOSS__SW\51__Lambda\CPUFW\21__BIOS\WS\BIOS\Release/../Src/UTIL/printf.c:105
		while (size-- > 0)
 656:	41240433          	sub	s0,s0,s2
D:\42__Project__CREOSS__SW\51__Lambda\CPUFW\21__BIOS\WS\BIOS\Release/../Src/UTIL/printf.c:108
	while (i < precision--)
		*str++ = '0';
 65a:	89a6                	mv	s3,s1
 65c:	4901                	li	s2,0
 65e:	009a4463          	blt	s4,s1,666 <crs32v_number+0xe2>
 662:	409a0933          	sub	s2,s4,s1
 666:	864a                	mv	a2,s2
 668:	03000593          	li	a1,48
 66c:	8542                	mv	a0,a6
 66e:	33a1                	jal	3b6 <memset>
 670:	012507b3          	add	a5,a0,s2
 674:	873e                	mv	a4,a5
D:\42__Project__CREOSS__SW\51__Lambda\CPUFW\21__BIOS\WS\BIOS\Release/../Src/UTIL/printf.c:109
	while (i-- > 0)
 676:	56fd                	li	a3,-1
 678:	14fd                	addi	s1,s1,-1
 67a:	0ad49163          	bne	s1,a3,71c <crs32v_number+0x198>
 67e:	97ce                	add	a5,a5,s3
D:\42__Project__CREOSS__SW\51__Lambda\CPUFW\21__BIOS\WS\BIOS\Release/../Src/UTIL/printf.c:112
		*str++ = tmp[i];
	while (size-- > 0)
		*str++ = ' ';
 680:	00045363          	bgez	s0,686 <crs32v_number+0x102>
 684:	4401                	li	s0,0
 686:	8622                	mv	a2,s0
 688:	02000593          	li	a1,32
 68c:	853e                	mv	a0,a5
 68e:	3325                	jal	3b6 <memset>
D:\42__Project__CREOSS__SW\51__Lambda\CPUFW\21__BIOS\WS\BIOS\Release/../Src/UTIL/printf.c:114
	return str;
}
 690:	50f6                	lw	ra,124(sp)
 692:	9522                	add	a0,a0,s0
 694:	5466                	lw	s0,120(sp)
 696:	54d6                	lw	s1,116(sp)
 698:	5946                	lw	s2,112(sp)
 69a:	59b6                	lw	s3,108(sp)
 69c:	5a26                	lw	s4,104(sp)
 69e:	5a96                	lw	s5,100(sp)
 6a0:	5b06                	lw	s6,96(sp)
 6a2:	4bf6                	lw	s7,92(sp)
 6a4:	4c66                	lw	s8,88(sp)
 6a6:	4cd6                	lw	s9,84(sp)
 6a8:	6109                	addi	sp,sp,128
 6aa:	8082                	ret
D:\42__Project__CREOSS__SW\51__Lambda\CPUFW\21__BIOS\WS\BIOS\Release/../Src/UTIL/printf.c:68
		} else if (type & PLUS) {
 6ac:	0047f613          	andi	a2,a5,4
 6b0:	c609                	beqz	a2,6ba <crs32v_number+0x136>
D:\42__Project__CREOSS__SW\51__Lambda\CPUFW\21__BIOS\WS\BIOS\Release/../Src/UTIL/printf.c:70
			size--;
 6b2:	16fd                	addi	a3,a3,-1
D:\42__Project__CREOSS__SW\51__Lambda\CPUFW\21__BIOS\WS\BIOS\Release/../Src/UTIL/printf.c:69
			sign = '+';
 6b4:	02b00993          	li	s3,43
 6b8:	bf31                	j	5d4 <crs32v_number+0x50>
D:\42__Project__CREOSS__SW\51__Lambda\CPUFW\21__BIOS\WS\BIOS\Release/../Src/UTIL/printf.c:71
		} else if (type & SPACE) {
 6ba:	0087f613          	andi	a2,a5,8
 6be:	f0060be3          	beqz	a2,5d4 <crs32v_number+0x50>
D:\42__Project__CREOSS__SW\51__Lambda\CPUFW\21__BIOS\WS\BIOS\Release/../Src/UTIL/printf.c:73
			size--;
 6c2:	16fd                	addi	a3,a3,-1
D:\42__Project__CREOSS__SW\51__Lambda\CPUFW\21__BIOS\WS\BIOS\Release/../Src/UTIL/printf.c:72
			sign = ' ';
 6c4:	02000993          	li	s3,32
 6c8:	b731                	j	5d4 <crs32v_number+0x50>
D:\42__Project__CREOSS__SW\51__Lambda\CPUFW\21__BIOS\WS\BIOS\Release/../Src/UTIL/printf.c:79
		else if (base == 8)
 6ca:	4621                	li	a2,8
 6cc:	f0c91ce3          	bne	s2,a2,5e4 <crs32v_number+0x60>
D:\42__Project__CREOSS__SW\51__Lambda\CPUFW\21__BIOS\WS\BIOS\Release/../Src/UTIL/printf.c:80
			size--;
 6d0:	16fd                	addi	a3,a3,-1
 6d2:	bf09                	j	5e4 <crs32v_number+0x60>
D:\42__Project__CREOSS__SW\51__Lambda\CPUFW\21__BIOS\WS\BIOS\Release/../Src/UTIL/printf.c:87
			tmp[i++] = (digits[__run_div(num, base)] | locase);
 6d4:	810d08b7          	lui	a7,0x810d0
 6d8:	0070                	addi	a2,sp,12
D:\42__Project__CREOSS__SW\51__Lambda\CPUFW\21__BIOS\WS\BIOS\Release/../Src/UTIL/printf.c:82
	i = 0;
 6da:	4481                	li	s1,0
D:\42__Project__CREOSS__SW\51__Lambda\CPUFW\21__BIOS\WS\BIOS\Release/../Src/UTIL/printf.c:87
			tmp[i++] = (digits[__run_div(num, base)] | locase);
 6dc:	0bc88893          	addi	a7,a7,188 # 810d00bc <_ctype_+0xfffffd64>
 6e0:	832e                	mv	t1,a1
 6e2:	03237533          	remu	a0,t1,s2
 6e6:	0485                	addi	s1,s1,1
D:\42__Project__CREOSS__SW\51__Lambda\CPUFW\21__BIOS\WS\BIOS\Release/../Src/UTIL/printf.c:86
		while (num != 0)
 6e8:	0605                	addi	a2,a2,1
D:\42__Project__CREOSS__SW\51__Lambda\CPUFW\21__BIOS\WS\BIOS\Release/../Src/UTIL/printf.c:87
			tmp[i++] = (digits[__run_div(num, base)] | locase);
 6ea:	9546                	add	a0,a0,a7
 6ec:	00054503          	lbu	a0,0(a0)
 6f0:	0325d5b3          	divu	a1,a1,s2
 6f4:	00aae533          	or	a0,s5,a0
 6f8:	fea60fa3          	sb	a0,-1(a2)
D:\42__Project__CREOSS__SW\51__Lambda\CPUFW\21__BIOS\WS\BIOS\Release/../Src/UTIL/printf.c:86
		while (num != 0)
 6fc:	ff2372e3          	bgeu	t1,s2,6e0 <crs32v_number+0x15c>
 700:	bdcd                	j	5f2 <crs32v_number+0x6e>
D:\42__Project__CREOSS__SW\51__Lambda\CPUFW\21__BIOS\WS\BIOS\Release/../Src/UTIL/printf.c:99
		else if (base == 16) {
 702:	47c1                	li	a5,16
 704:	f2f91ce3          	bne	s2,a5,63c <crs32v_number+0xb8>
D:\42__Project__CREOSS__SW\51__Lambda\CPUFW\21__BIOS\WS\BIOS\Release/../Src/UTIL/printf.c:100
			*str++ = '0';
 708:	03000793          	li	a5,48
D:\42__Project__CREOSS__SW\51__Lambda\CPUFW\21__BIOS\WS\BIOS\Release/../Src/UTIL/printf.c:101
			*str++ = ('X' | locase);
 70c:	058aea93          	ori	s5,s5,88
D:\42__Project__CREOSS__SW\51__Lambda\CPUFW\21__BIOS\WS\BIOS\Release/../Src/UTIL/printf.c:100
			*str++ = '0';
 710:	00f80023          	sb	a5,0(a6)
D:\42__Project__CREOSS__SW\51__Lambda\CPUFW\21__BIOS\WS\BIOS\Release/../Src/UTIL/printf.c:101
			*str++ = ('X' | locase);
 714:	015800a3          	sb	s5,1(a6)
 718:	0809                	addi	a6,a6,2
 71a:	b70d                	j	63c <crs32v_number+0xb8>
D:\42__Project__CREOSS__SW\51__Lambda\CPUFW\21__BIOS\WS\BIOS\Release/../Src/UTIL/printf.c:110
		*str++ = tmp[i];
 71c:	0070                	addi	a2,sp,12
 71e:	9626                	add	a2,a2,s1
 720:	00064603          	lbu	a2,0(a2)
 724:	0705                	addi	a4,a4,1
 726:	fec70fa3          	sb	a2,-1(a4)
 72a:	b7b9                	j	678 <crs32v_number+0xf4>

Disassembly of section .text.crs32v_vsprintf:

0000072c <crs32v_vsprintf>:
crs32v_vsprintf():
D:\42__Project__CREOSS__SW\51__Lambda\CPUFW\21__BIOS\WS\BIOS\Release/../Src/UTIL/printf.c:117

int crs32v_vsprintf(char *buf, const char *fmt, va_list args)
{
 72c:	715d                	addi	sp,sp,-80
 72e:	d85a                	sw	s6,48(sp)
 730:	d65e                	sw	s7,44(sp)
 732:	d462                	sw	s8,40(sp)
D:\42__Project__CREOSS__SW\51__Lambda\CPUFW\21__BIOS\WS\BIOS\Release/../Src/UTIL/printf.c:161
			goto repeat;
		}

		/* get field width */
		field_width = -1;
		if (isdigit(*fmt))
 734:	810d0b37          	lui	s6,0x810d0
D:\42__Project__CREOSS__SW\51__Lambda\CPUFW\21__BIOS\WS\BIOS\Release/../Src/UTIL/printf.c:281
			continue;
		}
		if (qualifier == 'l')
			num = va_arg(args, unsigned long);
		else if (qualifier == 'h') {
			num = (unsigned short)va_arg(args, int);
 738:	6bc1                	lui	s7,0x10
 73a:	810d0c37          	lui	s8,0x810d0
D:\42__Project__CREOSS__SW\51__Lambda\CPUFW\21__BIOS\WS\BIOS\Release/../Src/UTIL/printf.c:117
{
 73e:	c4a2                	sw	s0,72(sp)
 740:	de4e                	sw	s3,60(sp)
 742:	dc52                	sw	s4,56(sp)
 744:	da56                	sw	s5,52(sp)
 746:	c686                	sw	ra,76(sp)
 748:	c2a6                	sw	s1,68(sp)
 74a:	c0ca                	sw	s2,64(sp)
 74c:	d266                	sw	s9,36(sp)
 74e:	d06a                	sw	s10,32(sp)
 750:	ce6e                	sw	s11,28(sp)
 752:	8a2a                	mv	s4,a0
 754:	c62e                	sw	a1,12(sp)
 756:	89b2                	mv	s3,a2
D:\42__Project__CREOSS__SW\51__Lambda\CPUFW\21__BIOS\WS\BIOS\Release/../Src/UTIL/printf.c:131
	for (str = buf; *fmt; ++fmt) {
 758:	842a                	mv	s0,a0
D:\42__Project__CREOSS__SW\51__Lambda\CPUFW\21__BIOS\WS\BIOS\Release/../Src/UTIL/printf.c:132
		if (*fmt != '%') {
 75a:	02500a93          	li	s5,37
D:\42__Project__CREOSS__SW\51__Lambda\CPUFW\21__BIOS\WS\BIOS\Release/../Src/UTIL/printf.c:161
		if (isdigit(*fmt))
 75e:	359b0b13          	addi	s6,s6,857 # 810d0359 <_ctype_+0x1>
D:\42__Project__CREOSS__SW\51__Lambda\CPUFW\21__BIOS\WS\BIOS\Release/../Src/UTIL/printf.c:281
			num = (unsigned short)va_arg(args, int);
 762:	1bfd                	addi	s7,s7,-1
 764:	064c0c13          	addi	s8,s8,100 # 810d0064 <_ctype_+0xfffffd0c>
D:\42__Project__CREOSS__SW\51__Lambda\CPUFW\21__BIOS\WS\BIOS\Release/../Src/UTIL/printf.c:131 (discriminator 1)
	for (str = buf; *fmt; ++fmt) {
 768:	47b2                	lw	a5,12(sp)
 76a:	00078783          	lb	a5,0(a5)
 76e:	e785                	bnez	a5,796 <crs32v_vsprintf+0x6a>
D:\42__Project__CREOSS__SW\51__Lambda\CPUFW\21__BIOS\WS\BIOS\Release/../Src/UTIL/printf.c:290
			num = va_arg(args, int);
		else
			num = va_arg(args, unsigned int);
		str = crs32v_number(str, num, base, field_width, precision, flags);
	}
	*str = '\0';
 770:	00040023          	sb	zero,0(s0)
D:\42__Project__CREOSS__SW\51__Lambda\CPUFW\21__BIOS\WS\BIOS\Release/../Src/UTIL/printf.c:292
	return str - buf;
}
 774:	41440533          	sub	a0,s0,s4
 778:	40b6                	lw	ra,76(sp)
 77a:	4426                	lw	s0,72(sp)
 77c:	4496                	lw	s1,68(sp)
 77e:	4906                	lw	s2,64(sp)
 780:	59f2                	lw	s3,60(sp)
 782:	5a62                	lw	s4,56(sp)
 784:	5ad2                	lw	s5,52(sp)
 786:	5b42                	lw	s6,48(sp)
 788:	5bb2                	lw	s7,44(sp)
 78a:	5c22                	lw	s8,40(sp)
 78c:	5c92                	lw	s9,36(sp)
 78e:	5d02                	lw	s10,32(sp)
 790:	4df2                	lw	s11,28(sp)
 792:	6161                	addi	sp,sp,80
 794:	8082                	ret
D:\42__Project__CREOSS__SW\51__Lambda\CPUFW\21__BIOS\WS\BIOS\Release/../Src/UTIL/printf.c:132
		if (*fmt != '%') {
 796:	01578663          	beq	a5,s5,7a2 <crs32v_vsprintf+0x76>
D:\42__Project__CREOSS__SW\51__Lambda\CPUFW\21__BIOS\WS\BIOS\Release/../Src/UTIL/printf.c:133
			*str++ = *fmt;
 79a:	00f40023          	sb	a5,0(s0)
D:\42__Project__CREOSS__SW\51__Lambda\CPUFW\21__BIOS\WS\BIOS\Release/../Src/UTIL/printf.c:242
			*str++ = '%';
 79e:	0405                	addi	s0,s0,1
D:\42__Project__CREOSS__SW\51__Lambda\CPUFW\21__BIOS\WS\BIOS\Release/../Src/UTIL/printf.c:243
			continue;
 7a0:	a275                	j	94c <crs32v_vsprintf+0x220>
D:\42__Project__CREOSS__SW\51__Lambda\CPUFW\21__BIOS\WS\BIOS\Release/../Src/UTIL/printf.c:138
		flags = 0;
 7a2:	4481                	li	s1,0
D:\42__Project__CREOSS__SW\51__Lambda\CPUFW\21__BIOS\WS\BIOS\Release/../Src/UTIL/printf.c:141
		switch (*fmt) {
 7a4:	02b00693          	li	a3,43
 7a8:	02d00613          	li	a2,45
 7ac:	03000593          	li	a1,48
 7b0:	02000513          	li	a0,32
 7b4:	02300813          	li	a6,35
D:\42__Project__CREOSS__SW\51__Lambda\CPUFW\21__BIOS\WS\BIOS\Release/../Src/UTIL/printf.c:140
		++fmt;		/* this also skips first '%' */
 7b8:	4732                	lw	a4,12(sp)
 7ba:	00170793          	addi	a5,a4,1
 7be:	c63e                	sw	a5,12(sp)
D:\42__Project__CREOSS__SW\51__Lambda\CPUFW\21__BIOS\WS\BIOS\Release/../Src/UTIL/printf.c:141
		switch (*fmt) {
 7c0:	00170783          	lb	a5,1(a4)
 7c4:	0cd78263          	beq	a5,a3,888 <crs32v_vsprintf+0x15c>
 7c8:	0af6c663          	blt	a3,a5,874 <crs32v_vsprintf+0x148>
 7cc:	0ca78163          	beq	a5,a0,88e <crs32v_vsprintf+0x162>
 7d0:	0d078263          	beq	a5,a6,894 <crs32v_vsprintf+0x168>
D:\42__Project__CREOSS__SW\51__Lambda\CPUFW\21__BIOS\WS\BIOS\Release/../Src/UTIL/printf.c:161
		if (isdigit(*fmt))
 7d4:	016786b3          	add	a3,a5,s6
 7d8:	0006c683          	lbu	a3,0(a3)
 7dc:	8a91                	andi	a3,a3,4
 7de:	ced5                	beqz	a3,89a <crs32v_vsprintf+0x16e>
D:\42__Project__CREOSS__SW\51__Lambda\CPUFW\21__BIOS\WS\BIOS\Release/../Src/UTIL/printf.c:162
			field_width = crs32v_skip_atoi(&fmt);
 7e0:	0068                	addi	a0,sp,12
 7e2:	33b5                	jal	54e <crs32v_skip_atoi>
 7e4:	892a                	mv	s2,a0
D:\42__Project__CREOSS__SW\51__Lambda\CPUFW\21__BIOS\WS\BIOS\Release/../Src/UTIL/printf.c:175
		if (*fmt == '.') {
 7e6:	47b2                	lw	a5,12(sp)
 7e8:	02e00693          	li	a3,46
D:\42__Project__CREOSS__SW\51__Lambda\CPUFW\21__BIOS\WS\BIOS\Release/../Src/UTIL/printf.c:174
		precision = -1;
 7ec:	577d                	li	a4,-1
D:\42__Project__CREOSS__SW\51__Lambda\CPUFW\21__BIOS\WS\BIOS\Release/../Src/UTIL/printf.c:175
		if (*fmt == '.') {
 7ee:	00078603          	lb	a2,0(a5)
 7f2:	02d61363          	bne	a2,a3,818 <crs32v_vsprintf+0xec>
D:\42__Project__CREOSS__SW\51__Lambda\CPUFW\21__BIOS\WS\BIOS\Release/../Src/UTIL/printf.c:176
			++fmt;
 7f6:	00178713          	addi	a4,a5,1
 7fa:	c63a                	sw	a4,12(sp)
D:\42__Project__CREOSS__SW\51__Lambda\CPUFW\21__BIOS\WS\BIOS\Release/../Src/UTIL/printf.c:177
			if (isdigit(*fmt))
 7fc:	00178683          	lb	a3,1(a5)
 800:	00db0733          	add	a4,s6,a3
 804:	00074703          	lbu	a4,0(a4)
 808:	8b11                	andi	a4,a4,4
 80a:	cb4d                	beqz	a4,8bc <crs32v_vsprintf+0x190>
D:\42__Project__CREOSS__SW\51__Lambda\CPUFW\21__BIOS\WS\BIOS\Release/../Src/UTIL/printf.c:178
				precision = crs32v_skip_atoi(&fmt);
 80c:	0068                	addi	a0,sp,12
 80e:	3381                	jal	54e <crs32v_skip_atoi>
 810:	872a                	mv	a4,a0
D:\42__Project__CREOSS__SW\51__Lambda\CPUFW\21__BIOS\WS\BIOS\Release/../Src/UTIL/printf.c:184
			if (precision < 0)
 812:	00075363          	bgez	a4,818 <crs32v_vsprintf+0xec>
 816:	4701                	li	a4,0
D:\42__Project__CREOSS__SW\51__Lambda\CPUFW\21__BIOS\WS\BIOS\Release/../Src/UTIL/printf.c:190
		if (*fmt == 'h' || *fmt == 'l' || *fmt == 'L') {
 818:	47b2                	lw	a5,12(sp)
 81a:	06800693          	li	a3,104
 81e:	00078603          	lb	a2,0(a5)
 822:	00d60963          	beq	a2,a3,834 <crs32v_vsprintf+0x108>
D:\42__Project__CREOSS__SW\51__Lambda\CPUFW\21__BIOS\WS\BIOS\Release/../Src/UTIL/printf.c:190 (discriminator 2)
 826:	fdf67593          	andi	a1,a2,-33
 82a:	04c00513          	li	a0,76
D:\42__Project__CREOSS__SW\51__Lambda\CPUFW\21__BIOS\WS\BIOS\Release/../Src/UTIL/printf.c:189 (discriminator 2)
		qualifier = -1;
 82e:	56fd                	li	a3,-1
D:\42__Project__CREOSS__SW\51__Lambda\CPUFW\21__BIOS\WS\BIOS\Release/../Src/UTIL/printf.c:190 (discriminator 2)
		if (*fmt == 'h' || *fmt == 'l' || *fmt == 'L') {
 830:	00a59563          	bne	a1,a0,83a <crs32v_vsprintf+0x10e>
D:\42__Project__CREOSS__SW\51__Lambda\CPUFW\21__BIOS\WS\BIOS\Release/../Src/UTIL/printf.c:192
			++fmt;
 834:	0785                	addi	a5,a5,1
D:\42__Project__CREOSS__SW\51__Lambda\CPUFW\21__BIOS\WS\BIOS\Release/../Src/UTIL/printf.c:191
			qualifier = *fmt;
 836:	86b2                	mv	a3,a2
D:\42__Project__CREOSS__SW\51__Lambda\CPUFW\21__BIOS\WS\BIOS\Release/../Src/UTIL/printf.c:192
			++fmt;
 838:	c63e                	sw	a5,12(sp)
D:\42__Project__CREOSS__SW\51__Lambda\CPUFW\21__BIOS\WS\BIOS\Release/../Src/UTIL/printf.c:198
		switch (*fmt) {
 83a:	47b2                	lw	a5,12(sp)
 83c:	07800613          	li	a2,120
 840:	00078783          	lb	a5,0(a5)
 844:	00f64d63          	blt	a2,a5,85e <crs32v_vsprintf+0x132>
 848:	06200613          	li	a2,98
 84c:	08f64363          	blt	a2,a5,8d2 <crs32v_vsprintf+0x1a6>
 850:	1b578863          	beq	a5,s5,a00 <crs32v_vsprintf+0x2d4>
 854:	05800593          	li	a1,88
D:\42__Project__CREOSS__SW\51__Lambda\CPUFW\21__BIOS\WS\BIOS\Release/../Src/UTIL/printf.c:256
			base = 16;
 858:	4641                	li	a2,16
D:\42__Project__CREOSS__SW\51__Lambda\CPUFW\21__BIOS\WS\BIOS\Release/../Src/UTIL/printf.c:198
		switch (*fmt) {
 85a:	08b78863          	beq	a5,a1,8ea <crs32v_vsprintf+0x1be>
D:\42__Project__CREOSS__SW\51__Lambda\CPUFW\21__BIOS\WS\BIOS\Release/../Src/UTIL/printf.c:271
			*str++ = '%';
 85e:	01540023          	sb	s5,0(s0)
D:\42__Project__CREOSS__SW\51__Lambda\CPUFW\21__BIOS\WS\BIOS\Release/../Src/UTIL/printf.c:272
			if (*fmt)
 862:	47b2                	lw	a5,12(sp)
 864:	00078703          	lb	a4,0(a5)
 868:	1a070763          	beqz	a4,a16 <crs32v_vsprintf+0x2ea>
D:\42__Project__CREOSS__SW\51__Lambda\CPUFW\21__BIOS\WS\BIOS\Release/../Src/UTIL/printf.c:273
				*str++ = *fmt;
 86c:	00e400a3          	sb	a4,1(s0)
 870:	0409                	addi	s0,s0,2
 872:	a8e9                	j	94c <crs32v_vsprintf+0x220>
D:\42__Project__CREOSS__SW\51__Lambda\CPUFW\21__BIOS\WS\BIOS\Release/../Src/UTIL/printf.c:141
		switch (*fmt) {
 874:	00c78763          	beq	a5,a2,882 <crs32v_vsprintf+0x156>
 878:	f4b79ee3          	bne	a5,a1,7d4 <crs32v_vsprintf+0xa8>
D:\42__Project__CREOSS__SW\51__Lambda\CPUFW\21__BIOS\WS\BIOS\Release/../Src/UTIL/printf.c:155
			flags |= ZEROPAD;
 87c:	0014e493          	ori	s1,s1,1
D:\42__Project__CREOSS__SW\51__Lambda\CPUFW\21__BIOS\WS\BIOS\Release/../Src/UTIL/printf.c:156
			goto repeat;
 880:	bf25                	j	7b8 <crs32v_vsprintf+0x8c>
D:\42__Project__CREOSS__SW\51__Lambda\CPUFW\21__BIOS\WS\BIOS\Release/../Src/UTIL/printf.c:143
			flags |= LEFT;
 882:	0104e493          	ori	s1,s1,16
D:\42__Project__CREOSS__SW\51__Lambda\CPUFW\21__BIOS\WS\BIOS\Release/../Src/UTIL/printf.c:144
			goto repeat;
 886:	bf0d                	j	7b8 <crs32v_vsprintf+0x8c>
D:\42__Project__CREOSS__SW\51__Lambda\CPUFW\21__BIOS\WS\BIOS\Release/../Src/UTIL/printf.c:146
			flags |= PLUS;
 888:	0044e493          	ori	s1,s1,4
D:\42__Project__CREOSS__SW\51__Lambda\CPUFW\21__BIOS\WS\BIOS\Release/../Src/UTIL/printf.c:147
			goto repeat;
 88c:	b735                	j	7b8 <crs32v_vsprintf+0x8c>
D:\42__Project__CREOSS__SW\51__Lambda\CPUFW\21__BIOS\WS\BIOS\Release/../Src/UTIL/printf.c:149
			flags |= SPACE;
 88e:	0084e493          	ori	s1,s1,8
D:\42__Project__CREOSS__SW\51__Lambda\CPUFW\21__BIOS\WS\BIOS\Release/../Src/UTIL/printf.c:150
			goto repeat;
 892:	b71d                	j	7b8 <crs32v_vsprintf+0x8c>
D:\42__Project__CREOSS__SW\51__Lambda\CPUFW\21__BIOS\WS\BIOS\Release/../Src/UTIL/printf.c:152
			flags |= SPECIAL;
 894:	0404e493          	ori	s1,s1,64
D:\42__Project__CREOSS__SW\51__Lambda\CPUFW\21__BIOS\WS\BIOS\Release/../Src/UTIL/printf.c:153
			goto repeat;
 898:	b705                	j	7b8 <crs32v_vsprintf+0x8c>
D:\42__Project__CREOSS__SW\51__Lambda\CPUFW\21__BIOS\WS\BIOS\Release/../Src/UTIL/printf.c:163
		else if (*fmt == '*') {
 89a:	02a00693          	li	a3,42
D:\42__Project__CREOSS__SW\51__Lambda\CPUFW\21__BIOS\WS\BIOS\Release/../Src/UTIL/printf.c:160
		field_width = -1;
 89e:	597d                	li	s2,-1
D:\42__Project__CREOSS__SW\51__Lambda\CPUFW\21__BIOS\WS\BIOS\Release/../Src/UTIL/printf.c:163
		else if (*fmt == '*') {
 8a0:	f4d793e3          	bne	a5,a3,7e6 <crs32v_vsprintf+0xba>
D:\42__Project__CREOSS__SW\51__Lambda\CPUFW\21__BIOS\WS\BIOS\Release/../Src/UTIL/printf.c:166
			field_width = va_arg(args, int);
 8a4:	0009a903          	lw	s2,0(s3)
D:\42__Project__CREOSS__SW\51__Lambda\CPUFW\21__BIOS\WS\BIOS\Release/../Src/UTIL/printf.c:164
			++fmt;
 8a8:	0709                	addi	a4,a4,2
 8aa:	c63a                	sw	a4,12(sp)
D:\42__Project__CREOSS__SW\51__Lambda\CPUFW\21__BIOS\WS\BIOS\Release/../Src/UTIL/printf.c:166
			field_width = va_arg(args, int);
 8ac:	0991                	addi	s3,s3,4
D:\42__Project__CREOSS__SW\51__Lambda\CPUFW\21__BIOS\WS\BIOS\Release/../Src/UTIL/printf.c:167
			if (field_width < 0) {
 8ae:	f2095ce3          	bgez	s2,7e6 <crs32v_vsprintf+0xba>
D:\42__Project__CREOSS__SW\51__Lambda\CPUFW\21__BIOS\WS\BIOS\Release/../Src/UTIL/printf.c:168
				field_width = -field_width;
 8b2:	41200933          	neg	s2,s2
D:\42__Project__CREOSS__SW\51__Lambda\CPUFW\21__BIOS\WS\BIOS\Release/../Src/UTIL/printf.c:169
				flags |= LEFT;
 8b6:	0104e493          	ori	s1,s1,16
 8ba:	b735                	j	7e6 <crs32v_vsprintf+0xba>
D:\42__Project__CREOSS__SW\51__Lambda\CPUFW\21__BIOS\WS\BIOS\Release/../Src/UTIL/printf.c:179
			else if (*fmt == '*') {
 8bc:	02a00613          	li	a2,42
D:\42__Project__CREOSS__SW\51__Lambda\CPUFW\21__BIOS\WS\BIOS\Release/../Src/UTIL/printf.c:185
				precision = 0;
 8c0:	4701                	li	a4,0
D:\42__Project__CREOSS__SW\51__Lambda\CPUFW\21__BIOS\WS\BIOS\Release/../Src/UTIL/printf.c:179
			else if (*fmt == '*') {
 8c2:	f4c69be3          	bne	a3,a2,818 <crs32v_vsprintf+0xec>
D:\42__Project__CREOSS__SW\51__Lambda\CPUFW\21__BIOS\WS\BIOS\Release/../Src/UTIL/printf.c:180
				++fmt;
 8c6:	0789                	addi	a5,a5,2
D:\42__Project__CREOSS__SW\51__Lambda\CPUFW\21__BIOS\WS\BIOS\Release/../Src/UTIL/printf.c:182
				precision = va_arg(args, int);
 8c8:	0009a703          	lw	a4,0(s3)
D:\42__Project__CREOSS__SW\51__Lambda\CPUFW\21__BIOS\WS\BIOS\Release/../Src/UTIL/printf.c:180
				++fmt;
 8cc:	c63e                	sw	a5,12(sp)
D:\42__Project__CREOSS__SW\51__Lambda\CPUFW\21__BIOS\WS\BIOS\Release/../Src/UTIL/printf.c:182
				precision = va_arg(args, int);
 8ce:	0991                	addi	s3,s3,4
 8d0:	b789                	j	812 <crs32v_vsprintf+0xe6>
 8d2:	f9d78793          	addi	a5,a5,-99
 8d6:	0ff7f793          	zext.b	a5,a5
 8da:	4655                	li	a2,21
 8dc:	f8f661e3          	bltu	a2,a5,85e <crs32v_vsprintf+0x132>
 8e0:	078a                	slli	a5,a5,0x2
 8e2:	97e2                	add	a5,a5,s8
 8e4:	439c                	lw	a5,0(a5)
 8e6:	8782                	jr	a5
D:\42__Project__CREOSS__SW\51__Lambda\CPUFW\21__BIOS\WS\BIOS\Release/../Src/UTIL/printf.c:198
		switch (*fmt) {
 8e8:	4621                	li	a2,8
D:\42__Project__CREOSS__SW\51__Lambda\CPUFW\21__BIOS\WS\BIOS\Release/../Src/UTIL/printf.c:278
		if (qualifier == 'l')
 8ea:	06c00793          	li	a5,108
D:\42__Project__CREOSS__SW\51__Lambda\CPUFW\21__BIOS\WS\BIOS\Release/../Src/UTIL/printf.c:203
			*str++ = (unsigned char)va_arg(args, int);
 8ee:	00498c93          	addi	s9,s3,4
D:\42__Project__CREOSS__SW\51__Lambda\CPUFW\21__BIOS\WS\BIOS\Release/../Src/UTIL/printf.c:278
		if (qualifier == 'l')
 8f2:	12f69663          	bne	a3,a5,a1e <crs32v_vsprintf+0x2f2>
D:\42__Project__CREOSS__SW\51__Lambda\CPUFW\21__BIOS\WS\BIOS\Release/../Src/UTIL/printf.c:285
			num = va_arg(args, int);
 8f6:	0009a583          	lw	a1,0(s3)
 8fa:	aa2d                	j	a34 <crs32v_vsprintf+0x308>
D:\42__Project__CREOSS__SW\51__Lambda\CPUFW\21__BIOS\WS\BIOS\Release/../Src/UTIL/printf.c:200
			if (!(flags & LEFT))
 8fc:	88c1                	andi	s1,s1,16
 8fe:	e09d                	bnez	s1,924 <crs32v_vsprintf+0x1f8>
D:\42__Project__CREOSS__SW\51__Lambda\CPUFW\21__BIOS\WS\BIOS\Release/../Src/UTIL/printf.c:202
					*str++ = ' ';
 900:	fff90493          	addi	s1,s2,-1
 904:	4c81                	li	s9,0
 906:	01205363          	blez	s2,90c <crs32v_vsprintf+0x1e0>
 90a:	8ca6                	mv	s9,s1
 90c:	8522                	mv	a0,s0
 90e:	8666                	mv	a2,s9
 910:	02000593          	li	a1,32
 914:	344d                	jal	3b6 <memset>
 916:	9466                	add	s0,s0,s9
 918:	01204363          	bgtz	s2,91e <crs32v_vsprintf+0x1f2>
 91c:	4905                	li	s2,1
 91e:	41248933          	sub	s2,s1,s2
D:\42__Project__CREOSS__SW\51__Lambda\CPUFW\21__BIOS\WS\BIOS\Release/../Src/UTIL/printf.c:201
				while (--field_width > 0)
 922:	0905                	addi	s2,s2,1
D:\42__Project__CREOSS__SW\51__Lambda\CPUFW\21__BIOS\WS\BIOS\Release/../Src/UTIL/printf.c:203
			*str++ = (unsigned char)va_arg(args, int);
 924:	0009a703          	lw	a4,0(s3)
 928:	00140793          	addi	a5,s0,1
 92c:	00498493          	addi	s1,s3,4
 930:	00e40023          	sb	a4,0(s0)
D:\42__Project__CREOSS__SW\51__Lambda\CPUFW\21__BIOS\WS\BIOS\Release/../Src/UTIL/printf.c:205
				*str++ = ' ';
 934:	4401                	li	s0,0
 936:	01205463          	blez	s2,93e <crs32v_vsprintf+0x212>
 93a:	fff90413          	addi	s0,s2,-1
 93e:	8622                	mv	a2,s0
 940:	02000593          	li	a1,32
 944:	853e                	mv	a0,a5
 946:	3c85                	jal	3b6 <memset>
 948:	942a                	add	s0,s0,a0
D:\42__Project__CREOSS__SW\51__Lambda\CPUFW\21__BIOS\WS\BIOS\Release/../Src/UTIL/printf.c:203
			*str++ = (unsigned char)va_arg(args, int);
 94a:	89a6                	mv	s3,s1
D:\42__Project__CREOSS__SW\51__Lambda\CPUFW\21__BIOS\WS\BIOS\Release/../Src/UTIL/printf.c:131 (discriminator 2)
	for (str = buf; *fmt; ++fmt) {
 94c:	47b2                	lw	a5,12(sp)
 94e:	0785                	addi	a5,a5,1
 950:	c63e                	sw	a5,12(sp)
 952:	bd19                	j	768 <crs32v_vsprintf+0x3c>
D:\42__Project__CREOSS__SW\51__Lambda\CPUFW\21__BIOS\WS\BIOS\Release/../Src/UTIL/printf.c:209
			s = va_arg(args, char *);
 954:	0009ad03          	lw	s10,0(s3)
D:\42__Project__CREOSS__SW\51__Lambda\CPUFW\21__BIOS\WS\BIOS\Release/../Src/UTIL/printf.c:210
			len = strnlen(s, precision);
 958:	85ba                	mv	a1,a4
D:\42__Project__CREOSS__SW\51__Lambda\CPUFW\21__BIOS\WS\BIOS\Release/../Src/UTIL/printf.c:212
			if (!(flags & LEFT))
 95a:	88c1                	andi	s1,s1,16
D:\42__Project__CREOSS__SW\51__Lambda\CPUFW\21__BIOS\WS\BIOS\Release/../Src/UTIL/printf.c:210
			len = strnlen(s, precision);
 95c:	856a                	mv	a0,s10
 95e:	537010ef          	jal	ra,2694 <strnlen>
D:\42__Project__CREOSS__SW\51__Lambda\CPUFW\21__BIOS\WS\BIOS\Release/../Src/UTIL/printf.c:209
			s = va_arg(args, char *);
 962:	00498c93          	addi	s9,s3,4
D:\42__Project__CREOSS__SW\51__Lambda\CPUFW\21__BIOS\WS\BIOS\Release/../Src/UTIL/printf.c:210
			len = strnlen(s, precision);
 966:	89aa                	mv	s3,a0
D:\42__Project__CREOSS__SW\51__Lambda\CPUFW\21__BIOS\WS\BIOS\Release/../Src/UTIL/printf.c:212
			if (!(flags & LEFT))
 968:	e48d                	bnez	s1,992 <crs32v_vsprintf+0x266>
D:\42__Project__CREOSS__SW\51__Lambda\CPUFW\21__BIOS\WS\BIOS\Release/../Src/UTIL/printf.c:214
					*str++ = ' ';
 96a:	40a90db3          	sub	s11,s2,a0
 96e:	00a94363          	blt	s2,a0,974 <crs32v_vsprintf+0x248>
 972:	84ee                	mv	s1,s11
 974:	8522                	mv	a0,s0
 976:	8626                	mv	a2,s1
 978:	02000593          	li	a1,32
 97c:	3c2d                	jal	3b6 <memset>
 97e:	9426                	add	s0,s0,s1
 980:	fff90713          	addi	a4,s2,-1
 984:	4781                	li	a5,0
 986:	01394463          	blt	s2,s3,98e <crs32v_vsprintf+0x262>
 98a:	41b007b3          	neg	a5,s11
D:\42__Project__CREOSS__SW\51__Lambda\CPUFW\21__BIOS\WS\BIOS\Release/../Src/UTIL/printf.c:213
				while (len < field_width--)
 98e:	00e78933          	add	s2,a5,a4
D:\42__Project__CREOSS__SW\51__Lambda\CPUFW\21__BIOS\WS\BIOS\Release/../Src/UTIL/printf.c:215
			for (i = 0; i < len; ++i)
 992:	4781                	li	a5,0
D:\42__Project__CREOSS__SW\51__Lambda\CPUFW\21__BIOS\WS\BIOS\Release/../Src/UTIL/printf.c:215 (discriminator 1)
 994:	0337c463          	blt	a5,s3,9bc <crs32v_vsprintf+0x290>
 998:	854e                	mv	a0,s3
 99a:	0009d363          	bgez	s3,9a0 <crs32v_vsprintf+0x274>
 99e:	4501                	li	a0,0
 9a0:	942a                	add	s0,s0,a0
D:\42__Project__CREOSS__SW\51__Lambda\CPUFW\21__BIOS\WS\BIOS\Release/../Src/UTIL/printf.c:218
				*str++ = ' ';
 9a2:	4481                	li	s1,0
 9a4:	01394463          	blt	s2,s3,9ac <crs32v_vsprintf+0x280>
 9a8:	413904b3          	sub	s1,s2,s3
 9ac:	8522                	mv	a0,s0
 9ae:	8626                	mv	a2,s1
 9b0:	02000593          	li	a1,32
 9b4:	3409                	jal	3b6 <memset>
 9b6:	9426                	add	s0,s0,s1
D:\42__Project__CREOSS__SW\51__Lambda\CPUFW\21__BIOS\WS\BIOS\Release/../Src/UTIL/printf.c:288
		str = crs32v_number(str, num, base, field_width, precision, flags);
 9b8:	89e6                	mv	s3,s9
 9ba:	bf49                	j	94c <crs32v_vsprintf+0x220>
D:\42__Project__CREOSS__SW\51__Lambda\CPUFW\21__BIOS\WS\BIOS\Release/../Src/UTIL/printf.c:216 (discriminator 3)
				*str++ = *s++;
 9bc:	00fd0733          	add	a4,s10,a5
 9c0:	00070683          	lb	a3,0(a4)
 9c4:	00f40733          	add	a4,s0,a5
D:\42__Project__CREOSS__SW\51__Lambda\CPUFW\21__BIOS\WS\BIOS\Release/../Src/UTIL/printf.c:215 (discriminator 3)
			for (i = 0; i < len; ++i)
 9c8:	0785                	addi	a5,a5,1
D:\42__Project__CREOSS__SW\51__Lambda\CPUFW\21__BIOS\WS\BIOS\Release/../Src/UTIL/printf.c:216 (discriminator 3)
				*str++ = *s++;
 9ca:	00d70023          	sb	a3,0(a4)
D:\42__Project__CREOSS__SW\51__Lambda\CPUFW\21__BIOS\WS\BIOS\Release/../Src/UTIL/printf.c:215 (discriminator 3)
			for (i = 0; i < len; ++i)
 9ce:	b7d9                	j	994 <crs32v_vsprintf+0x268>
D:\42__Project__CREOSS__SW\51__Lambda\CPUFW\21__BIOS\WS\BIOS\Release/../Src/UTIL/printf.c:222
			if (field_width == -1) {
 9d0:	57fd                	li	a5,-1
 9d2:	00f91563          	bne	s2,a5,9dc <crs32v_vsprintf+0x2b0>
D:\42__Project__CREOSS__SW\51__Lambda\CPUFW\21__BIOS\WS\BIOS\Release/../Src/UTIL/printf.c:224
				flags |= ZEROPAD;
 9d6:	0014e493          	ori	s1,s1,1
D:\42__Project__CREOSS__SW\51__Lambda\CPUFW\21__BIOS\WS\BIOS\Release/../Src/UTIL/printf.c:223
				field_width = 2 * sizeof(void *);
 9da:	4921                	li	s2,8
D:\42__Project__CREOSS__SW\51__Lambda\CPUFW\21__BIOS\WS\BIOS\Release/../Src/UTIL/printf.c:226
			str = crs32v_number(str,
 9dc:	0009a583          	lw	a1,0(s3)
D:\42__Project__CREOSS__SW\51__Lambda\CPUFW\21__BIOS\WS\BIOS\Release/../Src/UTIL/printf.c:227
				     (unsigned long)va_arg(args, void *), 16,
 9e0:	00498c93          	addi	s9,s3,4
D:\42__Project__CREOSS__SW\51__Lambda\CPUFW\21__BIOS\WS\BIOS\Release/../Src/UTIL/printf.c:226
			str = crs32v_number(str,
 9e4:	87a6                	mv	a5,s1
 9e6:	86ca                	mv	a3,s2
 9e8:	4641                	li	a2,16
D:\42__Project__CREOSS__SW\51__Lambda\CPUFW\21__BIOS\WS\BIOS\Release/../Src/UTIL/printf.c:288
		str = crs32v_number(str, num, base, field_width, precision, flags);
 9ea:	8522                	mv	a0,s0
 9ec:	3e61                	jal	584 <crs32v_number>
 9ee:	842a                	mv	s0,a0
 9f0:	b7e1                	j	9b8 <crs32v_vsprintf+0x28c>
D:\42__Project__CREOSS__SW\51__Lambda\CPUFW\21__BIOS\WS\BIOS\Release/../Src/UTIL/printf.c:209
			s = va_arg(args, char *);
 9f2:	0009a783          	lw	a5,0(s3)
D:\42__Project__CREOSS__SW\51__Lambda\CPUFW\21__BIOS\WS\BIOS\Release/../Src/UTIL/printf.c:234
				*ip = (str - buf);
 9f6:	41440733          	sub	a4,s0,s4
D:\42__Project__CREOSS__SW\51__Lambda\CPUFW\21__BIOS\WS\BIOS\Release/../Src/UTIL/printf.c:203
			*str++ = (unsigned char)va_arg(args, int);
 9fa:	0991                	addi	s3,s3,4
D:\42__Project__CREOSS__SW\51__Lambda\CPUFW\21__BIOS\WS\BIOS\Release/../Src/UTIL/printf.c:234
				*ip = (str - buf);
 9fc:	c398                	sw	a4,0(a5)
 9fe:	b7b9                	j	94c <crs32v_vsprintf+0x220>
D:\42__Project__CREOSS__SW\51__Lambda\CPUFW\21__BIOS\WS\BIOS\Release/../Src/UTIL/printf.c:242
			*str++ = '%';
 a00:	01540023          	sb	s5,0(s0)
 a04:	bb69                	j	79e <crs32v_vsprintf+0x72>
D:\42__Project__CREOSS__SW\51__Lambda\CPUFW\21__BIOS\WS\BIOS\Release/../Src/UTIL/printf.c:251
			flags |= SMALL;
 a06:	0204e493          	ori	s1,s1,32
D:\42__Project__CREOSS__SW\51__Lambda\CPUFW\21__BIOS\WS\BIOS\Release/../Src/UTIL/printf.c:252
			base = 16;
 a0a:	4641                	li	a2,16
D:\42__Project__CREOSS__SW\51__Lambda\CPUFW\21__BIOS\WS\BIOS\Release/../Src/UTIL/printf.c:253
			break;
 a0c:	bdf9                	j	8ea <crs32v_vsprintf+0x1be>
D:\42__Project__CREOSS__SW\51__Lambda\CPUFW\21__BIOS\WS\BIOS\Release/../Src/UTIL/printf.c:264
			flags |= SIGN;
 a0e:	0024e493          	ori	s1,s1,2
D:\42__Project__CREOSS__SW\51__Lambda\CPUFW\21__BIOS\WS\BIOS\Release/../Src/UTIL/printf.c:196
		base = 10;
 a12:	4629                	li	a2,10
 a14:	bdd9                	j	8ea <crs32v_vsprintf+0x1be>
D:\42__Project__CREOSS__SW\51__Lambda\CPUFW\21__BIOS\WS\BIOS\Release/../Src/UTIL/printf.c:275
				--fmt;
 a16:	17fd                	addi	a5,a5,-1
D:\42__Project__CREOSS__SW\51__Lambda\CPUFW\21__BIOS\WS\BIOS\Release/../Src/UTIL/printf.c:271
			*str++ = '%';
 a18:	0405                	addi	s0,s0,1
D:\42__Project__CREOSS__SW\51__Lambda\CPUFW\21__BIOS\WS\BIOS\Release/../Src/UTIL/printf.c:275
				--fmt;
 a1a:	c63e                	sw	a5,12(sp)
 a1c:	bf05                	j	94c <crs32v_vsprintf+0x220>
D:\42__Project__CREOSS__SW\51__Lambda\CPUFW\21__BIOS\WS\BIOS\Release/../Src/UTIL/printf.c:280
		else if (qualifier == 'h') {
 a1e:	06800593          	li	a1,104
D:\42__Project__CREOSS__SW\51__Lambda\CPUFW\21__BIOS\WS\BIOS\Release/../Src/UTIL/printf.c:282
			if (flags & SIGN)
 a22:	0024f793          	andi	a5,s1,2
D:\42__Project__CREOSS__SW\51__Lambda\CPUFW\21__BIOS\WS\BIOS\Release/../Src/UTIL/printf.c:280
		else if (qualifier == 'h') {
 a26:	ecb698e3          	bne	a3,a1,8f6 <crs32v_vsprintf+0x1ca>
D:\42__Project__CREOSS__SW\51__Lambda\CPUFW\21__BIOS\WS\BIOS\Release/../Src/UTIL/printf.c:281
			num = (unsigned short)va_arg(args, int);
 a2a:	0009a583          	lw	a1,0(s3)
D:\42__Project__CREOSS__SW\51__Lambda\CPUFW\21__BIOS\WS\BIOS\Release/../Src/UTIL/printf.c:282
			if (flags & SIGN)
 a2e:	e791                	bnez	a5,a3a <crs32v_vsprintf+0x30e>
D:\42__Project__CREOSS__SW\51__Lambda\CPUFW\21__BIOS\WS\BIOS\Release/../Src/UTIL/printf.c:281
			num = (unsigned short)va_arg(args, int);
 a30:	0175f5b3          	and	a1,a1,s7
D:\42__Project__CREOSS__SW\51__Lambda\CPUFW\21__BIOS\WS\BIOS\Release/../Src/UTIL/printf.c:288
		str = crs32v_number(str, num, base, field_width, precision, flags);
 a34:	87a6                	mv	a5,s1
 a36:	86ca                	mv	a3,s2
 a38:	bf4d                	j	9ea <crs32v_vsprintf+0x2be>
D:\42__Project__CREOSS__SW\51__Lambda\CPUFW\21__BIOS\WS\BIOS\Release/../Src/UTIL/printf.c:283
				num = (short)num;
 a3a:	05c2                	slli	a1,a1,0x10
 a3c:	85c1                	srai	a1,a1,0x10
 a3e:	bfdd                	j	a34 <crs32v_vsprintf+0x308>

Disassembly of section .text.sprintf:

00000a40 <sprintf>:
sprintf():
D:\42__Project__CREOSS__SW\51__Lambda\CPUFW\21__BIOS\WS\BIOS\Release/../Src/UTIL/printf.c:295

int sprintf(char *buf, const char *fmt, ...)
{
 a40:	7139                	addi	sp,sp,-64
 a42:	d432                	sw	a2,40(sp)
D:\42__Project__CREOSS__SW\51__Lambda\CPUFW\21__BIOS\WS\BIOS\Release/../Src/UTIL/printf.c:299
	va_list args;
	int i;

	va_start(args, fmt);
 a44:	1030                	addi	a2,sp,40
D:\42__Project__CREOSS__SW\51__Lambda\CPUFW\21__BIOS\WS\BIOS\Release/../Src/UTIL/printf.c:295
{
 a46:	ce06                	sw	ra,28(sp)
 a48:	d636                	sw	a3,44(sp)
 a4a:	d83a                	sw	a4,48(sp)
 a4c:	da3e                	sw	a5,52(sp)
 a4e:	dc42                	sw	a6,56(sp)
 a50:	de46                	sw	a7,60(sp)
D:\42__Project__CREOSS__SW\51__Lambda\CPUFW\21__BIOS\WS\BIOS\Release/../Src/UTIL/printf.c:299
	va_start(args, fmt);
 a52:	c632                	sw	a2,12(sp)
D:\42__Project__CREOSS__SW\51__Lambda\CPUFW\21__BIOS\WS\BIOS\Release/../Src/UTIL/printf.c:300
	i = crs32v_vsprintf(buf, fmt, args);
 a54:	39e1                	jal	72c <crs32v_vsprintf>
D:\42__Project__CREOSS__SW\51__Lambda\CPUFW\21__BIOS\WS\BIOS\Release/../Src/UTIL/printf.c:303
	va_end(args);
	return i;
}
 a56:	40f2                	lw	ra,28(sp)
 a58:	6121                	addi	sp,sp,64
 a5a:	8082                	ret

Disassembly of section .text.crs32v_printf:

00000a5c <crs32v_printf>:
crs32v_printf():
D:\42__Project__CREOSS__SW\51__Lambda\CPUFW\21__BIOS\WS\BIOS\Release/../Src/UTIL/printf.c:306

int crs32v_printf(const char *fmt, ...)
{
 a5c:	bc010113          	addi	sp,sp,-1088
 a60:	42b12223          	sw	a1,1060(sp)
 a64:	42c12423          	sw	a2,1064(sp)
D:\42__Project__CREOSS__SW\51__Lambda\CPUFW\21__BIOS\WS\BIOS\Release/../Src/UTIL/printf.c:314

	va_list args;
	int printed;

	va_start(args, fmt);
	printed = crs32v_vsprintf(printf_buf, fmt, args);
 a68:	85aa                	mv	a1,a0
D:\42__Project__CREOSS__SW\51__Lambda\CPUFW\21__BIOS\WS\BIOS\Release/../Src/UTIL/printf.c:313
	va_start(args, fmt);
 a6a:	42410613          	addi	a2,sp,1060
D:\42__Project__CREOSS__SW\51__Lambda\CPUFW\21__BIOS\WS\BIOS\Release/../Src/UTIL/printf.c:314
	printed = crs32v_vsprintf(printf_buf, fmt, args);
 a6e:	0808                	addi	a0,sp,16
D:\42__Project__CREOSS__SW\51__Lambda\CPUFW\21__BIOS\WS\BIOS\Release/../Src/UTIL/printf.c:306
{
 a70:	40812c23          	sw	s0,1048(sp)
 a74:	40912a23          	sw	s1,1044(sp)
 a78:	40112e23          	sw	ra,1052(sp)
 a7c:	42d12623          	sw	a3,1068(sp)
 a80:	42e12823          	sw	a4,1072(sp)
 a84:	42f12a23          	sw	a5,1076(sp)
 a88:	43012c23          	sw	a6,1080(sp)
 a8c:	43112e23          	sw	a7,1084(sp)
D:\42__Project__CREOSS__SW\51__Lambda\CPUFW\21__BIOS\WS\BIOS\Release/../Src/UTIL/printf.c:313
	va_start(args, fmt);
 a90:	c632                	sw	a2,12(sp)
D:\42__Project__CREOSS__SW\51__Lambda\CPUFW\21__BIOS\WS\BIOS\Release/../Src/UTIL/printf.c:314
	printed = crs32v_vsprintf(printf_buf, fmt, args);
 a92:	3969                	jal	72c <crs32v_vsprintf>
 a94:	84aa                	mv	s1,a0
D:\42__Project__CREOSS__SW\51__Lambda\CPUFW\21__BIOS\WS\BIOS\Release/../Src/UTIL/printf.c:308
	char *sptr = printf_buf;		// added by Steve
 a96:	0800                	addi	s0,sp,16
D:\42__Project__CREOSS__SW\51__Lambda\CPUFW\21__BIOS\WS\BIOS\Release/../Src/UTIL/printf.c:318 (discriminator 1)
	va_end(args);

	//puts(printf_buf);		// original
	while (*sptr) uart_tx_byte(*sptr++);	// added by Steve
 a98:	00040503          	lb	a0,0(s0)
 a9c:	e919                	bnez	a0,ab2 <crs32v_printf+0x56>
D:\42__Project__CREOSS__SW\51__Lambda\CPUFW\21__BIOS\WS\BIOS\Release/../Src/UTIL/printf.c:321

	return printed;
}
 a9e:	41c12083          	lw	ra,1052(sp)
 aa2:	41812403          	lw	s0,1048(sp)
 aa6:	8526                	mv	a0,s1
 aa8:	41412483          	lw	s1,1044(sp)
 aac:	44010113          	addi	sp,sp,1088
 ab0:	8082                	ret
D:\42__Project__CREOSS__SW\51__Lambda\CPUFW\21__BIOS\WS\BIOS\Release/../Src/UTIL/printf.c:318 (discriminator 2)
	while (*sptr) uart_tx_byte(*sptr++);	// added by Steve
 ab2:	0405                	addi	s0,s0,1
 ab4:	3469                	jal	53e <uart_tx_byte>
 ab6:	b7cd                	j	a98 <crs32v_printf+0x3c>

Disassembly of section .text.jump_to_app_core:

00000ab8 <jump_to_app_core>:
jump_to_app_core():
D:\42__Project__CREOSS__SW\51__Lambda\CPUFW\21__BIOS\WS\BIOS\Release/../Src/LL/sys_core.c:68

	JumpAddress   = target_address;	
	_main_app     = (void *) JumpAddress;


	smon ( func_clear_all, 0 );
 ab8:	80ff07b7          	lui	a5,0x80ff0
 abc:	0c0780a3          	sb	zero,193(a5) # 80ff00c1 <_ctype_+0xfff1fd69>
D:\42__Project__CREOSS__SW\51__Lambda\CPUFW\21__BIOS\WS\BIOS\Release/../Src/LL/sys_core.c:70

	_main_app ( );
 ac0:	8502                	jr	a0

Disassembly of section .text.jump_to_fw:

00000ac2 <jump_to_fw>:
jump_to_fw():
D:\42__Project__CREOSS__SW\51__Lambda\CPUFW\21__BIOS\WS\BIOS\Release/../Src/LL/sys_core.c:36
	jump_to_app_core ( badd_tgt_fw );
 ac2:	bfdd                	j	ab8 <jump_to_app_core>

Disassembly of section .text.int_srv_i2cs:

00000ac4 <int_srv_i2cs>:
int_srv_i2cs():
D:\42__Project__CREOSS__SW\51__Lambda\CPUFW\21__BIOS\WS\BIOS\Release/../Src/LL/sys_i2cs.c:42
	uint16_t	n;

	//--------------------------------------------------------------------------------
	//--	Intro
	//--------------------------------------------------------------------------------
	isr  =  sI2CS.int_src & (~sI2CS.int_msk);
 ac4:	810806b7          	lui	a3,0x81080
 ac8:	42dc                	lw	a5,4(a3)
 aca:	4290                	lw	a2,0(a3)
 acc:	fff64613          	not	a2,a2
 ad0:	8e7d                	and	a2,a2,a5
D:\42__Project__CREOSS__SW\51__Lambda\CPUFW\21__BIOS\WS\BIOS\Release/../Src/LL/sys_i2cs.c:45

	#if	1
		sclr ( d16[ 0], 0);
 ad2:	80fe07b7          	lui	a5,0x80fe0
 ad6:	00079823          	sh	zero,16(a5) # 80fe0010 <_ctype_+0xfff0fcb8>
D:\42__Project__CREOSS__SW\51__Lambda\CPUFW\21__BIOS\WS\BIOS\Release/../Src/LL/sys_i2cs.c:47

		smon ( d16[ 0], sI2CS.int_msk );
 ada:	4298                	lw	a4,0(a3)
 adc:	80ff07b7          	lui	a5,0x80ff0
D:\42__Project__CREOSS__SW\51__Lambda\CPUFW\21__BIOS\WS\BIOS\Release/../Src/LL/sys_i2cs.c:42
	isr  =  sI2CS.int_src & (~sI2CS.int_msk);
 ae0:	01061513          	slli	a0,a2,0x10
D:\42__Project__CREOSS__SW\51__Lambda\CPUFW\21__BIOS\WS\BIOS\Release/../Src/LL/sys_i2cs.c:47
		smon ( d16[ 0], sI2CS.int_msk );
 ae4:	0742                	slli	a4,a4,0x10
 ae6:	8341                	srli	a4,a4,0x10
 ae8:	00e79823          	sh	a4,16(a5) # 80ff0010 <_ctype_+0xfff1fcb8>
D:\42__Project__CREOSS__SW\51__Lambda\CPUFW\21__BIOS\WS\BIOS\Release/../Src/LL/sys_i2cs.c:48
		smon ( d16[ 1], sI2CS.int_src );
 aec:	42d8                	lw	a4,4(a3)
D:\42__Project__CREOSS__SW\51__Lambda\CPUFW\21__BIOS\WS\BIOS\Release/../Src/LL/sys_i2cs.c:79
	//--------------------------------------------------------------------------------
	//--	Interrupt :  START + SAW + ADD_L + ADD_H + STOP ( or REPST )
	//--------------------------------------------------------------------------------
	smon ( st16[4], 0x2000 );

	if ( ( (isr&I2CS_INT_RESTART_DET) || (isr&I2CS_INT_STOP_DET) ) ) {
 aee:	8a19                	andi	a2,a2,6
D:\42__Project__CREOSS__SW\51__Lambda\CPUFW\21__BIOS\WS\BIOS\Release/../Src/LL/sys_i2cs.c:42
	isr  =  sI2CS.int_src & (~sI2CS.int_msk);
 af0:	8141                	srli	a0,a0,0x10
D:\42__Project__CREOSS__SW\51__Lambda\CPUFW\21__BIOS\WS\BIOS\Release/../Src/LL/sys_i2cs.c:48
		smon ( d16[ 1], sI2CS.int_src );
 af2:	0742                	slli	a4,a4,0x10
 af4:	8341                	srli	a4,a4,0x10
 af6:	00e79923          	sh	a4,18(a5)
D:\42__Project__CREOSS__SW\51__Lambda\CPUFW\21__BIOS\WS\BIOS\Release/../Src/LL/sys_i2cs.c:49
		smon ( d16[ 2], sI2CS.dma_en );
 afa:	08068713          	addi	a4,a3,128 # 81080080 <_ctype_+0xfffafd28>
 afe:	430c                	lw	a1,0(a4)
 b00:	05c2                	slli	a1,a1,0x10
 b02:	81c1                	srli	a1,a1,0x10
 b04:	00b79a23          	sh	a1,20(a5)
D:\42__Project__CREOSS__SW\51__Lambda\CPUFW\21__BIOS\WS\BIOS\Release/../Src/LL/sys_i2cs.c:50
		smon ( d16[ 3], sI2CS.dma_rd_start_badr );
 b08:	434c                	lw	a1,4(a4)
 b0a:	05c2                	slli	a1,a1,0x10
 b0c:	81c1                	srli	a1,a1,0x10
 b0e:	00b79b23          	sh	a1,22(a5)
D:\42__Project__CREOSS__SW\51__Lambda\CPUFW\21__BIOS\WS\BIOS\Release/../Src/LL/sys_i2cs.c:51
		smon ( d16[ 4], sI2CS.dma_wr_start_badr );
 b12:	470c                	lw	a1,8(a4)
 b14:	05c2                	slli	a1,a1,0x10
 b16:	81c1                	srli	a1,a1,0x10
 b18:	00b79c23          	sh	a1,24(a5)
D:\42__Project__CREOSS__SW\51__Lambda\CPUFW\21__BIOS\WS\BIOS\Release/../Src/LL/sys_i2cs.c:52
		smon ( d16[ 5], sI2CS.dma_badr_offset );
 b1c:	474c                	lw	a1,12(a4)
 b1e:	05c2                	slli	a1,a1,0x10
 b20:	81c1                	srli	a1,a1,0x10
 b22:	00b79d23          	sh	a1,26(a5)
D:\42__Project__CREOSS__SW\51__Lambda\CPUFW\21__BIOS\WS\BIOS\Release/../Src/LL/sys_i2cs.c:53
		smon ( d16[ 6], sI2CS.dma_rd_en_auto_clear );
 b26:	4b0c                	lw	a1,16(a4)
 b28:	05c2                	slli	a1,a1,0x10
 b2a:	81c1                	srli	a1,a1,0x10
 b2c:	00b79e23          	sh	a1,28(a5)
D:\42__Project__CREOSS__SW\51__Lambda\CPUFW\21__BIOS\WS\BIOS\Release/../Src/LL/sys_i2cs.c:54
		smon ( d16[ 7], sI2CS.dma_badr_lower_limit );
 b30:	4b4c                	lw	a1,20(a4)
 b32:	05c2                	slli	a1,a1,0x10
 b34:	81c1                	srli	a1,a1,0x10
 b36:	00b79f23          	sh	a1,30(a5)
D:\42__Project__CREOSS__SW\51__Lambda\CPUFW\21__BIOS\WS\BIOS\Release/../Src/LL/sys_i2cs.c:55
		smon ( d16[ 8], sI2CS.dma_badr_upper_limit );
 b3a:	4f0c                	lw	a1,24(a4)
 b3c:	05c2                	slli	a1,a1,0x10
 b3e:	81c1                	srli	a1,a1,0x10
 b40:	02b79023          	sh	a1,32(a5)
D:\42__Project__CREOSS__SW\51__Lambda\CPUFW\21__BIOS\WS\BIOS\Release/../Src/LL/sys_i2cs.c:56
		smon ( d16[ 9], sI2CS.tx_byte_count );
 b44:	432c                	lw	a1,64(a4)
 b46:	05c2                	slli	a1,a1,0x10
 b48:	81c1                	srli	a1,a1,0x10
 b4a:	02b79123          	sh	a1,34(a5)
D:\42__Project__CREOSS__SW\51__Lambda\CPUFW\21__BIOS\WS\BIOS\Release/../Src/LL/sys_i2cs.c:57
		smon ( d16[10], sI2CS.rx_byte_count );
 b4e:	4378                	lw	a4,68(a4)
 b50:	0742                	slli	a4,a4,0x10
 b52:	8341                	srli	a4,a4,0x10
 b54:	02e79223          	sh	a4,36(a5)
D:\42__Project__CREOSS__SW\51__Lambda\CPUFW\21__BIOS\WS\BIOS\Release/../Src/LL/sys_i2cs.c:59
		smon ( d16[11], 0xFFFF );
 b58:	577d                	li	a4,-1
 b5a:	02e79323          	sh	a4,38(a5)
D:\42__Project__CREOSS__SW\51__Lambda\CPUFW\21__BIOS\WS\BIOS\Release/../Src/LL/sys_i2cs.c:60
		smon ( d16[12], hwdp16[0] );
 b5e:	40001737          	lui	a4,0x40001
 b62:	27072583          	lw	a1,624(a4) # 40001270 <hwdp16>
 b66:	0005d583          	lhu	a1,0(a1)
 b6a:	02b79423          	sh	a1,40(a5)
D:\42__Project__CREOSS__SW\51__Lambda\CPUFW\21__BIOS\WS\BIOS\Release/../Src/LL/sys_i2cs.c:61
		smon ( d16[13], hwdp16[1] );
 b6e:	27072583          	lw	a1,624(a4)
 b72:	0025d583          	lhu	a1,2(a1)
 b76:	02b79523          	sh	a1,42(a5)
D:\42__Project__CREOSS__SW\51__Lambda\CPUFW\21__BIOS\WS\BIOS\Release/../Src/LL/sys_i2cs.c:62
		smon ( d16[14], hwdp16[2] );
 b7a:	27072583          	lw	a1,624(a4)
 b7e:	0045d583          	lhu	a1,4(a1)
 b82:	02b79623          	sh	a1,44(a5)
D:\42__Project__CREOSS__SW\51__Lambda\CPUFW\21__BIOS\WS\BIOS\Release/../Src/LL/sys_i2cs.c:63
		smon ( d16[15], hwdp16[3] );
 b86:	27072583          	lw	a1,624(a4)
 b8a:	0065d583          	lhu	a1,6(a1)
 b8e:	02b79723          	sh	a1,46(a5)
D:\42__Project__CREOSS__SW\51__Lambda\CPUFW\21__BIOS\WS\BIOS\Release/../Src/LL/sys_i2cs.c:69
	smon ( st16[4], 0x1000 );
 b92:	6585                	lui	a1,0x1
 b94:	00b79423          	sh	a1,8(a5)
D:\42__Project__CREOSS__SW\51__Lambda\CPUFW\21__BIOS\WS\BIOS\Release/../Src/LL/sys_i2cs.c:71
	hcmd = hwdp16[0];
 b98:	27072583          	lw	a1,624(a4)
 b9c:	0005d803          	lhu	a6,0(a1) # 1000 <spim_cmdgen+0x354>
 ba0:	400015b7          	lui	a1,0x40001
 ba4:	25059823          	sh	a6,592(a1) # 40001250 <hcmd>
D:\42__Project__CREOSS__SW\51__Lambda\CPUFW\21__BIOS\WS\BIOS\Release/../Src/LL/sys_i2cs.c:72
	harg = hwdp16[1];
 ba8:	27072703          	lw	a4,624(a4)
 bac:	00275803          	lhu	a6,2(a4)
 bb0:	40001737          	lui	a4,0x40001
 bb4:	25071623          	sh	a6,588(a4) # 4000124c <harg>
D:\42__Project__CREOSS__SW\51__Lambda\CPUFW\21__BIOS\WS\BIOS\Release/../Src/LL/sys_i2cs.c:77
	smon ( st16[4], 0x2000 );
 bb8:	6709                	lui	a4,0x2
 bba:	00e79423          	sh	a4,8(a5)
D:\42__Project__CREOSS__SW\51__Lambda\CPUFW\21__BIOS\WS\BIOS\Release/../Src/LL/sys_i2cs.c:79
	if ( ( (isr&I2CS_INT_RESTART_DET) || (isr&I2CS_INT_STOP_DET) ) ) {
 bbe:	ce39                	beqz	a2,c1c <int_srv_i2cs+0x158>
D:\42__Project__CREOSS__SW\51__Lambda\CPUFW\21__BIOS\WS\BIOS\Release/../Src/LL/sys_i2cs.c:81

		smon ( st16[4], 0x2100 );
 bc0:	10070613          	addi	a2,a4,256 # 2100 <BIOS_HCMD_EVAL+0x4>
 bc4:	00c79423          	sh	a2,8(a5)
D:\42__Project__CREOSS__SW\51__Lambda\CPUFW\21__BIOS\WS\BIOS\Release/../Src/LL/sys_i2cs.c:85


		//--	if  S + SA + D0 + D1 + P,    read address packet
		if (sI2CS.rx_byte_count==2) {
 bc8:	0c46a803          	lw	a6,196(a3)
 bcc:	4609                	li	a2,2
 bce:	06c81763          	bne	a6,a2,c3c <int_srv_i2cs+0x178>
D:\42__Project__CREOSS__SW\51__Lambda\CPUFW\21__BIOS\WS\BIOS\Release/../Src/LL/sys_i2cs.c:87

			smon ( st16[4], 0x2110 );
 bd2:	11070613          	addi	a2,a4,272
 bd6:	00c79423          	sh	a2,8(a5)
D:\42__Project__CREOSS__SW\51__Lambda\CPUFW\21__BIOS\WS\BIOS\Release/../Src/LL/sys_i2cs.c:89

			set_htst ( htst );
 bda:	400018b7          	lui	a7,0x40001
 bde:	40001637          	lui	a2,0x40001
 be2:	25462803          	lw	a6,596(a2) # 40001254 <hrdp16>
 be6:	26c8d883          	lhu	a7,620(a7) # 4000126c <htst>
D:\42__Project__CREOSS__SW\51__Lambda\CPUFW\21__BIOS\WS\BIOS\Release/../Src/LL/sys_i2cs.c:90
			set_haux ( haux );
 bea:	25462603          	lw	a2,596(a2)
D:\42__Project__CREOSS__SW\51__Lambda\CPUFW\21__BIOS\WS\BIOS\Release/../Src/LL/sys_i2cs.c:89
			set_htst ( htst );
 bee:	01181223          	sh	a7,4(a6)
D:\42__Project__CREOSS__SW\51__Lambda\CPUFW\21__BIOS\WS\BIOS\Release/../Src/LL/sys_i2cs.c:90
			set_haux ( haux );
 bf2:	40001837          	lui	a6,0x40001
 bf6:	24e85803          	lhu	a6,590(a6) # 4000124e <haux>
 bfa:	01061323          	sh	a6,6(a2)
D:\42__Project__CREOSS__SW\51__Lambda\CPUFW\21__BIOS\WS\BIOS\Release/../Src/LL/sys_i2cs.c:96

			//hrdp16[2] = htst;
			//hrdp16[3] = haux;

			//--	if hcmd==0x0010, 'read htst'
			if (hcmd==0x0010) {
 bfe:	2505d603          	lhu	a2,592(a1)
 c02:	45c1                	li	a1,16
 c04:	0642                	slli	a2,a2,0x10
 c06:	8241                	srli	a2,a2,0x10
 c08:	02b61363          	bne	a2,a1,c2e <int_srv_i2cs+0x16a>
D:\42__Project__CREOSS__SW\51__Lambda\CPUFW\21__BIOS\WS\BIOS\Release/../Src/LL/sys_i2cs.c:97
				smon ( st16[4], 0x2120 );
 c0c:	12070713          	addi	a4,a4,288
 c10:	00e79423          	sh	a4,8(a5)
D:\42__Project__CREOSS__SW\51__Lambda\CPUFW\21__BIOS\WS\BIOS\Release/../Src/LL/sys_i2cs.c:98
				sI2CS.dma_rd_start_badr = POS_BADR_HRDP + 4;	// hrdp16[2], hrdp32[1]
 c14:	1fc00793          	li	a5,508
D:\42__Project__CREOSS__SW\51__Lambda\CPUFW\21__BIOS\WS\BIOS\Release/../Src/LL/sys_i2cs.c:102
			//--	else,
			} else {
				smon ( st16[4], 0x2130 );
				sI2CS.dma_rd_start_badr = POS_BADR_HRDP + 8;	// hrdp16[4], hrdp32[2]
 c18:	08f6a223          	sw	a5,132(a3)
D:\42__Project__CREOSS__SW\51__Lambda\CPUFW\21__BIOS\WS\BIOS\Release/../Src/LL/sys_i2cs.c:124 (discriminator 1)
	}

	//--------------------------------------------------------------------------------
	//--	Outro
	//--------------------------------------------------------------------------------
	smon ( st16[4], 0x3000 );
 c1c:	80ff07b7          	lui	a5,0x80ff0
 c20:	670d                	lui	a4,0x3
 c22:	00e79423          	sh	a4,8(a5) # 80ff0008 <_ctype_+0xfff1fcb0>
D:\42__Project__CREOSS__SW\51__Lambda\CPUFW\21__BIOS\WS\BIOS\Release/../Src/LL/sys_i2cs.c:126 (discriminator 1)

	sI2CS.int_mrs = isr;
 c26:	810807b7          	lui	a5,0x81080
 c2a:	c788                	sw	a0,8(a5)
D:\42__Project__CREOSS__SW\51__Lambda\CPUFW\21__BIOS\WS\BIOS\Release/../Src/LL/sys_i2cs.c:127 (discriminator 1)
}
 c2c:	8082                	ret
D:\42__Project__CREOSS__SW\51__Lambda\CPUFW\21__BIOS\WS\BIOS\Release/../Src/LL/sys_i2cs.c:101
				smon ( st16[4], 0x2130 );
 c2e:	13070713          	addi	a4,a4,304 # 3130 <strnlen+0xa9c>
 c32:	00e79423          	sh	a4,8(a5) # 81080008 <_ctype_+0xfffafcb0>
D:\42__Project__CREOSS__SW\51__Lambda\CPUFW\21__BIOS\WS\BIOS\Release/../Src/LL/sys_i2cs.c:102
				sI2CS.dma_rd_start_badr = POS_BADR_HRDP + 8;	// hrdp16[4], hrdp32[2]
 c36:	20000793          	li	a5,512
 c3a:	bff9                	j	c18 <int_srv_i2cs+0x154>
D:\42__Project__CREOSS__SW\51__Lambda\CPUFW\21__BIOS\WS\BIOS\Release/../Src/LL/sys_i2cs.c:108
			smon ( st16[4], 0x2200 );
 c3c:	20070693          	addi	a3,a4,512
 c40:	00d79423          	sh	a3,8(a5)
D:\42__Project__CREOSS__SW\51__Lambda\CPUFW\21__BIOS\WS\BIOS\Release/../Src/LL/sys_i2cs.c:110
			if ( hcmd < 0x0010 ) {
 c44:	2505d683          	lhu	a3,592(a1)
 c48:	463d                	li	a2,15
 c4a:	06c2                	slli	a3,a3,0x10
 c4c:	82c1                	srli	a3,a3,0x10
 c4e:	02d66163          	bltu	a2,a3,c70 <int_srv_i2cs+0x1ac>
D:\42__Project__CREOSS__SW\51__Lambda\CPUFW\21__BIOS\WS\BIOS\Release/../Src/LL/sys_i2cs.c:111
				smon ( st16[4], 0x2210 );
 c52:	21070713          	addi	a4,a4,528
 c56:	00e79423          	sh	a4,8(a5)
D:\42__Project__CREOSS__SW\51__Lambda\CPUFW\21__BIOS\WS\BIOS\Release/../Src/LL/sys_i2cs.c:112
				hcmd_trig = 0x01;
 c5a:	400017b7          	lui	a5,0x40001
 c5e:	4705                	li	a4,1
 c60:	24e78923          	sb	a4,594(a5) # 40001252 <hcmd_trig>
D:\42__Project__CREOSS__SW\51__Lambda\CPUFW\21__BIOS\WS\BIOS\Release/../Src/LL/sys_i2cs.c:113
				htst = HTST_BIOS_BUSY;
 c64:	400017b7          	lui	a5,0x40001
 c68:	7771                	lui	a4,0xffffc
 c6a:	26e79623          	sh	a4,620(a5) # 4000126c <htst>
 c6e:	b77d                	j	c1c <int_srv_i2cs+0x158>
D:\42__Project__CREOSS__SW\51__Lambda\CPUFW\21__BIOS\WS\BIOS\Release/../Src/LL/sys_i2cs.c:115
				smon ( st16[4], 0x2220 );
 c70:	22070713          	addi	a4,a4,544 # ffffc220 <_ctype_+0x7ef2bec8>
 c74:	00e79423          	sh	a4,8(a5)
 c78:	b755                	j	c1c <int_srv_i2cs+0x158>

Disassembly of section .text.set_hintn:

00000c7a <set_hintn>:
set_hintn():
D:\42__Project__CREOSS__SW\51__Lambda\CPUFW\21__BIOS\WS\BIOS\Release/../Src/LL/sys_iopc.c:93
 * @todo	
 * @warning	
 * @see	
*///----------------------------------------------------------------------------------------------------------------------
__att_noinline__	void	set_hintn ( uint8_t wd ) {
	if ( gss.mode_hintn == MODE_HINTN_OD ) {
 c7a:	400017b7          	lui	a5,0x40001
 c7e:	00078793          	mv	a5,a5
 c82:	4398                	lw	a4,0(a5)
 c84:	eb11                	bnez	a4,c98 <set_hintn+0x1e>
D:\42__Project__CREOSS__SW\51__Lambda\CPUFW\21__BIOS\WS\BIOS\Release/../Src/LL/sys_iopc.c:94
		sIOPC.hintn_oe = (wd&0x1)^0x1;
 c86:	fff54513          	not	a0,a0
 c8a:	810207b7          	lui	a5,0x81020
 c8e:	8905                	andi	a0,a0,1
 c90:	c3e8                	sw	a0,68(a5)
D:\42__Project__CREOSS__SW\51__Lambda\CPUFW\21__BIOS\WS\BIOS\Release/../Src/LL/sys_iopc.c:95
		sIOPC.hintn_o  = 0x0;
 c92:	0407a023          	sw	zero,64(a5) # 81020040 <_ctype_+0xfff4fce8>
 c96:	8082                	ret
D:\42__Project__CREOSS__SW\51__Lambda\CPUFW\21__BIOS\WS\BIOS\Release/../Src/LL/sys_iopc.c:96
	} else if ( gss.mode_hintn == MODE_HINTN_PP ) {
 c98:	4398                	lw	a4,0(a5)
 c9a:	4785                	li	a5,1
 c9c:	00f71763          	bne	a4,a5,caa <set_hintn+0x30>
D:\42__Project__CREOSS__SW\51__Lambda\CPUFW\21__BIOS\WS\BIOS\Release/../Src/LL/sys_iopc.c:97
		sIOPC.hintn_o  = wd&0x1;
 ca0:	810207b7          	lui	a5,0x81020
 ca4:	8905                	andi	a0,a0,1
 ca6:	c3a8                	sw	a0,64(a5)
D:\42__Project__CREOSS__SW\51__Lambda\CPUFW\21__BIOS\WS\BIOS\Release/../Src/LL/sys_iopc.c:98
		sIOPC.hintn_oe = 0x1;
 ca8:	c3f8                	sw	a4,68(a5)
D:\42__Project__CREOSS__SW\51__Lambda\CPUFW\21__BIOS\WS\BIOS\Release/../Src/LL/sys_iopc.c:100
	}
}
 caa:	8082                	ret

Disassembly of section .text.spim_cmdgen:

00000cac <spim_cmdgen>:
spim_cmdgen():
D:\42__Project__CREOSS__SW\51__Lambda\CPUFW\21__BIOS\WS\BIOS\Release/../Src/LL/sys_spim.c:38
 * @bug		-
 * @todo	Make the function without internal buffer. 
 * @warning	-
 * @see		-
*///-------------------------------------------------------------------------------
void	__att_noinline__	spim_cmdgen ( uint16_t vcmd, uint32_t cmd, uint16_t wargnbyte, uint32_t warg, uint32_t wnbyte, uint8_t* wbuf, uint32_t rnbyte, uint8_t* rbuf){
     cac:	1101                	addi	sp,sp,-32
     cae:	c436                	sw	a3,8(sp)
     cb0:	c62e                	sw	a1,12(sp)
     cb2:	ce22                	sw	s0,28(sp)
D:\42__Project__CREOSS__SW\51__Lambda\CPUFW\21__BIOS\WS\BIOS\Release/../Src/LL/sys_spim.c:49
	uint32_t	dmac_backup_rch_src_sel;
	uint32_t	dmac_backup_flow_ctrl;

	uint32_t	nbyte_remain;

	smonl ( st16[0], 0x0010 );
     cb4:	80ff06b7          	lui	a3,0x80ff0
     cb8:	45c1                	li	a1,16
     cba:	00b69023          	sh	a1,0(a3) # 80ff0000 <_ctype_+0xfff1fca8>
D:\42__Project__CREOSS__SW\51__Lambda\CPUFW\21__BIOS\WS\BIOS\Release/../Src/LL/sys_spim.c:50
	smonl ( d32[0], (uint32_t) vcmd 		);
     cbe:	caa8                	sw	a0,80(a3)
D:\42__Project__CREOSS__SW\51__Lambda\CPUFW\21__BIOS\WS\BIOS\Release/../Src/LL/sys_spim.c:51
	smonl ( d32[1], (uint32_t) cmd	);
     cc0:	45b2                	lw	a1,12(sp)
D:\42__Project__CREOSS__SW\51__Lambda\CPUFW\21__BIOS\WS\BIOS\Release/../Src/LL/sys_spim.c:69
	sSPIM.dma_wr_st_badr = 0;		// data pointer to read from FLASH and write to    SRAM

	//--------------------------------------------------------------------------------
	//--	Pre-Setting
	//--------------------------------------------------------------------------------
	dmac_backup_rch_src_sel = sDMAC.rch_src_sel;
     cc2:	81010f37          	lui	t5,0x81010
D:\42__Project__CREOSS__SW\51__Lambda\CPUFW\21__BIOS\WS\BIOS\Release/../Src/LL/sys_spim.c:51
	smonl ( d32[1], (uint32_t) cmd	);
     cc6:	caec                	sw	a1,84(a3)
D:\42__Project__CREOSS__SW\51__Lambda\CPUFW\21__BIOS\WS\BIOS\Release/../Src/LL/sys_spim.c:52
	smonl ( d32[2], (uint32_t) wargnbyte		);
     cc8:	ceb0                	sw	a2,88(a3)
D:\42__Project__CREOSS__SW\51__Lambda\CPUFW\21__BIOS\WS\BIOS\Release/../Src/LL/sys_spim.c:53
	smonl ( d32[3], (uint32_t) warg		);
     cca:	4ea2                	lw	t4,8(sp)
     ccc:	00815f83          	lhu	t6,8(sp)
     cd0:	05d6ae23          	sw	t4,92(a3)
D:\42__Project__CREOSS__SW\51__Lambda\CPUFW\21__BIOS\WS\BIOS\Release/../Src/LL/sys_spim.c:54
	smonl ( d32[4], (uint32_t) wnbyte		);
     cd4:	d2b8                	sw	a4,96(a3)
D:\42__Project__CREOSS__SW\51__Lambda\CPUFW\21__BIOS\WS\BIOS\Release/../Src/LL/sys_spim.c:55
	smonl ( d32[5], (uint32_t) wbuf[0]		);
     cd6:	0007c583          	lbu	a1,0(a5) # 81020000 <_ctype_+0xfff4fca8>
     cda:	d2ec                	sw	a1,100(a3)
D:\42__Project__CREOSS__SW\51__Lambda\CPUFW\21__BIOS\WS\BIOS\Release/../Src/LL/sys_spim.c:56
	smonl ( d32[6], (uint32_t) rnbyte		);
     cdc:	0706a423          	sw	a6,104(a3)
D:\42__Project__CREOSS__SW\51__Lambda\CPUFW\21__BIOS\WS\BIOS\Release/../Src/LL/sys_spim.c:57
	smonl ( d32[7], (uint32_t) rbuf[0]		);
     ce0:	0008c583          	lbu	a1,0(a7)
     ce4:	d6ec                	sw	a1,108(a3)
D:\42__Project__CREOSS__SW\51__Lambda\CPUFW\21__BIOS\WS\BIOS\Release/../Src/LL/sys_spim.c:59
	sclr ( d32[0], 0 );
     ce6:	80fe05b7          	lui	a1,0x80fe0
     cea:	0405a823          	sw	zero,80(a1) # 80fe0050 <_ctype_+0xfff0fcf8>
D:\42__Project__CREOSS__SW\51__Lambda\CPUFW\21__BIOS\WS\BIOS\Release/../Src/LL/sys_spim.c:61
	smonl ( st16[0], 0x0020 );
     cee:	02000593          	li	a1,32
     cf2:	00b69023          	sh	a1,0(a3)
D:\42__Project__CREOSS__SW\51__Lambda\CPUFW\21__BIOS\WS\BIOS\Release/../Src/LL/sys_spim.c:63
	sSPIM.dma_rd_st_badr = 0;		// data pointer to send to   FLASH and read  from  SRAM
     cf6:	810906b7          	lui	a3,0x81090
     cfa:	0806a023          	sw	zero,128(a3) # 81090080 <_ctype_+0xfffbfd28>
D:\42__Project__CREOSS__SW\51__Lambda\CPUFW\21__BIOS\WS\BIOS\Release/../Src/LL/sys_spim.c:64
	sSPIM.dma_wr_st_badr = 0;		// data pointer to read from FLASH and write to    SRAM
     cfe:	0806a223          	sw	zero,132(a3)
D:\42__Project__CREOSS__SW\51__Lambda\CPUFW\21__BIOS\WS\BIOS\Release/../Src/LL/sys_spim.c:72
	dmac_backup_flow_ctrl   = ( sDMAC.flow_ctrl >> 8 );

	if ( gss.opt_spim_n_rch==OPT_SPIM_RCH1 ) {
     d02:	400016b7          	lui	a3,0x40001
     d06:	00068293          	mv	t0,a3
D:\42__Project__CREOSS__SW\51__Lambda\CPUFW\21__BIOS\WS\BIOS\Release/../Src/LL/sys_spim.c:69
	dmac_backup_rch_src_sel = sDMAC.rch_src_sel;
     d0a:	01cf2e03          	lw	t3,28(t5) # 8101001c <_ctype_+0xfff3fcc4>
D:\42__Project__CREOSS__SW\51__Lambda\CPUFW\21__BIOS\WS\BIOS\Release/../Src/LL/sys_spim.c:70
	dmac_backup_flow_ctrl   = ( sDMAC.flow_ctrl >> 8 );
     d0e:	018f2583          	lw	a1,24(t5)
D:\42__Project__CREOSS__SW\51__Lambda\CPUFW\21__BIOS\WS\BIOS\Release/../Src/LL/sys_spim.c:72
	if ( gss.opt_spim_n_rch==OPT_SPIM_RCH1 ) {
     d12:	01c2a283          	lw	t0,28(t0) # 460 <__CTOR_LIST__+0x2>
     d16:	00068693          	mv	a3,a3
D:\42__Project__CREOSS__SW\51__Lambda\CPUFW\21__BIOS\WS\BIOS\Release/../Src/LL/sys_spim.c:70
	dmac_backup_flow_ctrl   = ( sDMAC.flow_ctrl >> 8 );
     d1a:	81a1                	srli	a1,a1,0x8
D:\42__Project__CREOSS__SW\51__Lambda\CPUFW\21__BIOS\WS\BIOS\Release/../Src/LL/sys_spim.c:72
	if ( gss.opt_spim_n_rch==OPT_SPIM_RCH1 ) {
     d1c:	0c029e63          	bnez	t0,df8 <spim_cmdgen+0x14c>
D:\42__Project__CREOSS__SW\51__Lambda\CPUFW\21__BIOS\WS\BIOS\Release/../Src/LL/sys_spim.c:73
		sDMAC.rch_src_sel = ( sDMAC.rch_src_sel & DMAC_RCH1_SRC_SEL_CLR ) | DMAC_RCH1_SRC_SEL_2_SPIM;
     d20:	01cf2283          	lw	t0,28(t5)
     d24:	ff32f293          	andi	t0,t0,-13
     d28:	0082e293          	ori	t0,t0,8
D:\42__Project__CREOSS__SW\51__Lambda\CPUFW\21__BIOS\WS\BIOS\Release/../Src/LL/sys_spim.c:76

	} else if ( gss.opt_spim_n_rch==OPT_SPIM_RCH2 ) {
		sDMAC.rch_src_sel = ( sDMAC.rch_src_sel & DMAC_RCH2_SRC_SEL_CLR ) | DMAC_RCH2_SRC_SEL_1_SPIM;
     d2c:	005f2e23          	sw	t0,28(t5)
D:\42__Project__CREOSS__SW\51__Lambda\CPUFW\21__BIOS\WS\BIOS\Release/../Src/LL/sys_spim.c:80
	}


	sSPIM.ctrl_st = sSPIM.ctrl_st | ( 0x1 << 5 );		// [5] SPIM_OE
     d30:	81090f37          	lui	t5,0x81090
     d34:	010f2283          	lw	t0,16(t5) # 81090010 <_ctype_+0xfffbfcb8>
     d38:	0202e293          	ori	t0,t0,32
     d3c:	005f2823          	sw	t0,16(t5)
D:\42__Project__CREOSS__SW\51__Lambda\CPUFW\21__BIOS\WS\BIOS\Release/../Src/LL/sys_spim.c:81
	sSPIM.ssn_sel = ( 0x1 << 0 );
     d40:	4285                	li	t0,1
     d42:	025f2223          	sw	t0,36(t5)
D:\42__Project__CREOSS__SW\51__Lambda\CPUFW\21__BIOS\WS\BIOS\Release/../Src/LL/sys_spim.c:82
	sSPIM.ssn_oe  = ( 0x1 << 0 );
     d46:	005f2c23          	sw	t0,24(t5)
D:\42__Project__CREOSS__SW\51__Lambda\CPUFW\21__BIOS\WS\BIOS\Release/../Src/LL/sys_spim.c:93
	//--------------------------------------------------------------------------------
	//--	SSN = L
	//--------------------------------------------------------------------------------
	if ( 1 ) {
		ntask    = 0;
		sSPIM.task_schedule[ntask++] = ( (0x0<<4) | TID_SSN_SEL  );		
     d4a:	0c5f2023          	sw	t0,192(t5)
D:\42__Project__CREOSS__SW\51__Lambda\CPUFW\21__BIOS\WS\BIOS\Release/../Src/LL/sys_spim.c:94
		sSPIM.task_schedule[ntask++] = ( (0x0<<4) | TID_IDLE     );
     d4e:	0c0f2223          	sw	zero,196(t5)
D:\42__Project__CREOSS__SW\51__Lambda\CPUFW\21__BIOS\WS\BIOS\Release/../Src/LL/sys_spim.c:95
		sSPIM.ctrl_ac = SPIM_CTRL_AC_TASK_TRIG;
     d52:	4289                	li	t0,2
     d54:	005f2a23          	sw	t0,20(t5)
D:\42__Project__CREOSS__SW\51__Lambda\CPUFW\21__BIOS\WS\BIOS\Release/../Src/LL/sys_spim.c:96
		macro_nop_x4 ( );
     d58:	0001                	nop
     d5a:	0001                	nop
     d5c:	0001                	nop
     d5e:	0001                	nop
D:\42__Project__CREOSS__SW\51__Lambda\CPUFW\21__BIOS\WS\BIOS\Release/../Src/LL/sys_spim.c:98
		for ( n=0 ; n<100000 ; n++ ) {
			if ( sSPIM.st == 0x01 ) {
     d60:	810902b7          	lui	t0,0x81090
     d64:	4385                	li	t2,1
     d66:	00c2af03          	lw	t5,12(t0) # 8109000c <_ctype_+0xfffbfcb4>
     d6a:	fe7f1ee3          	bne	t5,t2,d66 <spim_cmdgen+0xba>
D:\42__Project__CREOSS__SW\51__Lambda\CPUFW\21__BIOS\WS\BIOS\Release/../Src/LL/sys_spim.c:104
				break;
			}
		}
	}

	smonl ( st16[1], __LINE__ );
     d6e:	80ff0f37          	lui	t5,0x80ff0
     d72:	06800293          	li	t0,104
     d76:	005f1123          	sh	t0,2(t5) # 80ff0002 <_ctype_+0xfff1fcaa>
D:\42__Project__CREOSS__SW\51__Lambda\CPUFW\21__BIOS\WS\BIOS\Release/../Src/LL/sys_spim.c:109

	//------------------------------------------------------------
	//--	CMD
	//------------------------------------------------------------
	if (vcmd) {
     d7a:	e959                	bnez	a0,e10 <spim_cmdgen+0x164>
D:\42__Project__CREOSS__SW\51__Lambda\CPUFW\21__BIOS\WS\BIOS\Release/../Src/LL/sys_spim.c:153
			}
		}

	}

	smonl ( st16[1], __LINE__ );
     d7c:	80ff0537          	lui	a0,0x80ff0
     d80:	09900f13          	li	t5,153
     d84:	01e51123          	sh	t5,2(a0) # 80ff0002 <_ctype_+0xfff1fcaa>
D:\42__Project__CREOSS__SW\51__Lambda\CPUFW\21__BIOS\WS\BIOS\Release/../Src/LL/sys_spim.c:158

	//------------------------------------------------------------
	//--	ARGUMENT
	//------------------------------------------------------------
	if (wargnbyte!=0) {
     d88:	18061463          	bnez	a2,f10 <spim_cmdgen+0x264>
D:\42__Project__CREOSS__SW\51__Lambda\CPUFW\21__BIOS\WS\BIOS\Release/../Src/LL/sys_spim.c:217
				break;
			}
		}
	}

	smonl ( st16[1], __LINE__ );
     d8c:	80ff0637          	lui	a2,0x80ff0
     d90:	0d900513          	li	a0,217
     d94:	00a61123          	sh	a0,2(a2) # 80ff0002 <_ctype_+0xfff1fcaa>
D:\42__Project__CREOSS__SW\51__Lambda\CPUFW\21__BIOS\WS\BIOS\Release/../Src/LL/sys_spim.c:222

	//------------------------------------------------------------
	//--	WRITE_DATA : if wnbyte>SPIM_NB_PER_TASK , split to multiple tasks.
	//------------------------------------------------------------
	if (wnbyte!=0) {
     d98:	32071d63          	bnez	a4,10d2 <spim_cmdgen+0x426>
D:\42__Project__CREOSS__SW\51__Lambda\CPUFW\21__BIOS\WS\BIOS\Release/../Src/LL/sys_spim.c:278
				break;
			}
		}
	}

	smonl ( st16[1], __LINE__ );
     d9c:	80ff07b7          	lui	a5,0x80ff0
     da0:	11600713          	li	a4,278
     da4:	00e79123          	sh	a4,2(a5) # 80ff0002 <_ctype_+0xfff1fcaa>
D:\42__Project__CREOSS__SW\51__Lambda\CPUFW\21__BIOS\WS\BIOS\Release/../Src/LL/sys_spim.c:284

	//------------------------------------------------------------
	//--	READ_DATA
	//------------------------------------------------------------

	if (rnbyte!=0) {
     da8:	46081c63          	bnez	a6,1220 <spim_cmdgen+0x574>
D:\42__Project__CREOSS__SW\51__Lambda\CPUFW\21__BIOS\WS\BIOS\Release/../Src/LL/sys_spim.c:354
				break;
			}
		}
	}

	smonl ( st16[1], __LINE__ );
     dac:	80ff07b7          	lui	a5,0x80ff0
     db0:	16200713          	li	a4,354
     db4:	00e79123          	sh	a4,2(a5) # 80ff0002 <_ctype_+0xfff1fcaa>
D:\42__Project__CREOSS__SW\51__Lambda\CPUFW\21__BIOS\WS\BIOS\Release/../Src/LL/sys_spim.c:361
	//--------------------------------------------------------------------------------
	//--	SSN = H
	//--------------------------------------------------------------------------------
	if ( 1 ) {
		ntask    = 0;
		sSPIM.task_schedule[ntask++] = ( TID_SSN_REL  |   (0x0<<4) );		
     db8:	810907b7          	lui	a5,0x81090
     dbc:	4709                	li	a4,2
     dbe:	0ce7a023          	sw	a4,192(a5) # 810900c0 <_ctype_+0xfffbfd68>
D:\42__Project__CREOSS__SW\51__Lambda\CPUFW\21__BIOS\WS\BIOS\Release/../Src/LL/sys_spim.c:362
		sSPIM.task_schedule[ntask++] = ( TID_IDLE     |   (0x0<<4) );
     dc2:	0c07a223          	sw	zero,196(a5)
D:\42__Project__CREOSS__SW\51__Lambda\CPUFW\21__BIOS\WS\BIOS\Release/../Src/LL/sys_spim.c:363
		sSPIM.ctrl_ac = SPIM_CTRL_AC_TASK_TRIG;
     dc6:	cbd8                	sw	a4,20(a5)
D:\42__Project__CREOSS__SW\51__Lambda\CPUFW\21__BIOS\WS\BIOS\Release/../Src/LL/sys_spim.c:364
		macro_nop_x4 ( );
     dc8:	0001                	nop
     dca:	0001                	nop
     dcc:	0001                	nop
     dce:	0001                	nop
D:\42__Project__CREOSS__SW\51__Lambda\CPUFW\21__BIOS\WS\BIOS\Release/../Src/LL/sys_spim.c:366
		for ( n=0 ; n<100000 ; n++ ) {
			if ( sSPIM.st == 0x01 ) {
     dd0:	810906b7          	lui	a3,0x81090
     dd4:	4785                	li	a5,1
     dd6:	46d8                	lw	a4,12(a3)
     dd8:	fef71fe3          	bne	a4,a5,dd6 <spim_cmdgen+0x12a>
D:\42__Project__CREOSS__SW\51__Lambda\CPUFW\21__BIOS\WS\BIOS\Release/../Src/LL/sys_spim.c:374
		}
	}
	//--------------------------------------------------------------------------------
	//--	Post-Setting
	//--------------------------------------------------------------------------------
	sDMAC.rch_src_sel  = dmac_backup_rch_src_sel ;
     ddc:	810107b7          	lui	a5,0x81010
     de0:	01c7ae23          	sw	t3,28(a5) # 8101001c <_ctype_+0xfff3fcc4>
D:\42__Project__CREOSS__SW\51__Lambda\CPUFW\21__BIOS\WS\BIOS\Release/../Src/LL/sys_spim.c:380
	sDMAC.flow_ctrl    = dmac_backup_flow_ctrl   ;

	smonl ( st16[1], __LINE__ );

	return;
}
     de4:	4472                	lw	s0,28(sp)
D:\42__Project__CREOSS__SW\51__Lambda\CPUFW\21__BIOS\WS\BIOS\Release/../Src/LL/sys_spim.c:375
	sDMAC.flow_ctrl    = dmac_backup_flow_ctrl   ;
     de6:	cf8c                	sw	a1,24(a5)
D:\42__Project__CREOSS__SW\51__Lambda\CPUFW\21__BIOS\WS\BIOS\Release/../Src/LL/sys_spim.c:377
	smonl ( st16[1], __LINE__ );
     de8:	17900713          	li	a4,377
     dec:	80ff07b7          	lui	a5,0x80ff0
     df0:	00e79123          	sh	a4,2(a5) # 80ff0002 <_ctype_+0xfff1fcaa>
D:\42__Project__CREOSS__SW\51__Lambda\CPUFW\21__BIOS\WS\BIOS\Release/../Src/LL/sys_spim.c:380
}
     df4:	6105                	addi	sp,sp,32
     df6:	8082                	ret
D:\42__Project__CREOSS__SW\51__Lambda\CPUFW\21__BIOS\WS\BIOS\Release/../Src/LL/sys_spim.c:75
	} else if ( gss.opt_spim_n_rch==OPT_SPIM_RCH2 ) {
     df8:	01c6a383          	lw	t2,28(a3) # 8109001c <_ctype_+0xfffbfcc4>
     dfc:	4285                	li	t0,1
     dfe:	f25399e3          	bne	t2,t0,d30 <spim_cmdgen+0x84>
D:\42__Project__CREOSS__SW\51__Lambda\CPUFW\21__BIOS\WS\BIOS\Release/../Src/LL/sys_spim.c:76
		sDMAC.rch_src_sel = ( sDMAC.rch_src_sel & DMAC_RCH2_SRC_SEL_CLR ) | DMAC_RCH2_SRC_SEL_1_SPIM;
     e02:	01cf2283          	lw	t0,28(t5)
     e06:	fcf2f293          	andi	t0,t0,-49
     e0a:	0102e293          	ori	t0,t0,16
     e0e:	bf39                	j	d2c <spim_cmdgen+0x80>
D:\42__Project__CREOSS__SW\51__Lambda\CPUFW\21__BIOS\WS\BIOS\Release/../Src/LL/sys_spim.c:111
		if ( (((uint32_t)(&cmd))&0xFF000000 ) == 0x40000000 ) {		// MA, CPU DATA SRAM, TCH0
     e10:	00c10293          	addi	t0,sp,12
     e14:	ff000537          	lui	a0,0xff000
     e18:	00a2f533          	and	a0,t0,a0
     e1c:	40000437          	lui	s0,0x40000
     e20:	0a851563          	bne	a0,s0,eca <spim_cmdgen+0x21e>
D:\42__Project__CREOSS__SW\51__Lambda\CPUFW\21__BIOS\WS\BIOS\Release/../Src/LL/sys_spim.c:112
			if ( gss.opt_spim_n_rch==OPT_SPIM_RCH1 ) {
     e24:	4ec8                	lw	a0,28(a3)
     e26:	e151                	bnez	a0,eaa <spim_cmdgen+0x1fe>
D:\42__Project__CREOSS__SW\51__Lambda\CPUFW\21__BIOS\WS\BIOS\Release/../Src/LL/sys_spim.c:113
				smonl ( st16[1], __LINE__ );
     e28:	07100513          	li	a0,113
     e2c:	00af1123          	sh	a0,2(t5)
D:\42__Project__CREOSS__SW\51__Lambda\CPUFW\21__BIOS\WS\BIOS\Release/../Src/LL/sys_spim.c:114
				sDMAC.flow_ctrl = ( sDMAC.flow_ctrl & DMAC_FLOW_CTRL_RCH1_TCH_CLR ) | DMAC_FLOW_CTRL_RCH1_TCH0_EN;
     e30:	81010f37          	lui	t5,0x81010
     e34:	018f2503          	lw	a0,24(t5) # 81010018 <_ctype_+0xfff3fcc0>
     e38:	fdd57513          	andi	a0,a0,-35
     e3c:	00256513          	ori	a0,a0,2
D:\42__Project__CREOSS__SW\51__Lambda\CPUFW\21__BIOS\WS\BIOS\Release/../Src/LL/sys_spim.c:126
				sDMAC.flow_ctrl = ( sDMAC.flow_ctrl & DMAC_FLOW_CTRL_RCH2_TCH_CLR ) | DMAC_FLOW_CTRL_RCH2_TCH1_EN;
     e40:	00af2c23          	sw	a0,24(t5)
D:\42__Project__CREOSS__SW\51__Lambda\CPUFW\21__BIOS\WS\BIOS\Release/../Src/LL/sys_spim.c:130
		sSPIM.dma_rd_st_badr = (uint32_t) (&cmd);		// data pointer to send to   FLASH
     e44:	810903b7          	lui	t2,0x81090
     e48:	08038513          	addi	a0,t2,128 # 81090080 <_ctype_+0xfffbfd28>
     e4c:	00552023          	sw	t0,0(a0) # ff000000 <_ctype_+0x7df2fca8>
D:\42__Project__CREOSS__SW\51__Lambda\CPUFW\21__BIOS\WS\BIOS\Release/../Src/LL/sys_spim.c:133
		smonl ( d32[0] , sDMAC.flow_ctrl >> 8 ) ;
     e50:	81010437          	lui	s0,0x81010
     e54:	01842283          	lw	t0,24(s0) # 81010018 <_ctype_+0xfff3fcc0>
     e58:	80ff0f37          	lui	t5,0x80ff0
     e5c:	0082d293          	srli	t0,t0,0x8
     e60:	045f2823          	sw	t0,80(t5) # 80ff0050 <_ctype_+0xfff1fcf8>
D:\42__Project__CREOSS__SW\51__Lambda\CPUFW\21__BIOS\WS\BIOS\Release/../Src/LL/sys_spim.c:134
		smonl ( d32[1] , sDMAC.rch_src_sel    ) ;
     e64:	01c42283          	lw	t0,28(s0)
     e68:	045f2a23          	sw	t0,84(t5)
D:\42__Project__CREOSS__SW\51__Lambda\CPUFW\21__BIOS\WS\BIOS\Release/../Src/LL/sys_spim.c:135
		smonl ( d32[2] , sSPIM.dma_rd_st_badr ) ;
     e6c:	00052283          	lw	t0,0(a0)
     e70:	045f2c23          	sw	t0,88(t5)
D:\42__Project__CREOSS__SW\51__Lambda\CPUFW\21__BIOS\WS\BIOS\Release/../Src/LL/sys_spim.c:136
		smonl ( d32[3] , sSPIM.dma_wr_st_badr ) ;
     e74:	00452283          	lw	t0,4(a0)
     e78:	045f2e23          	sw	t0,92(t5)
D:\42__Project__CREOSS__SW\51__Lambda\CPUFW\21__BIOS\WS\BIOS\Release/../Src/LL/sys_spim.c:140
		sSPIM.task_schedule[ntask++] = ( (0x0<<4) | TID_SSN_SEL    );		
     e7c:	4f05                	li	t5,1
     e7e:	05e52023          	sw	t5,64(a0)
D:\42__Project__CREOSS__SW\51__Lambda\CPUFW\21__BIOS\WS\BIOS\Release/../Src/LL/sys_spim.c:141
		sSPIM.task_schedule[ntask++] = ( (0x0<<4) | TID_WCMD_1IO   );
     e82:	4f0d                	li	t5,3
     e84:	05e52223          	sw	t5,68(a0)
D:\42__Project__CREOSS__SW\51__Lambda\CPUFW\21__BIOS\WS\BIOS\Release/../Src/LL/sys_spim.c:142
		sSPIM.task_schedule[ntask++] = ( (0x0<<4) | TID_IDLE       );
     e88:	0c03a423          	sw	zero,200(t2)
D:\42__Project__CREOSS__SW\51__Lambda\CPUFW\21__BIOS\WS\BIOS\Release/../Src/LL/sys_spim.c:143
		sSPIM.ctrl_ac = SPIM_CTRL_AC_TASK_TRIG;
     e8c:	4509                	li	a0,2
     e8e:	00a3aa23          	sw	a0,20(t2)
D:\42__Project__CREOSS__SW\51__Lambda\CPUFW\21__BIOS\WS\BIOS\Release/../Src/LL/sys_spim.c:144
		macro_nop_x4 ( );
     e92:	0001                	nop
     e94:	0001                	nop
     e96:	0001                	nop
     e98:	0001                	nop
D:\42__Project__CREOSS__SW\51__Lambda\CPUFW\21__BIOS\WS\BIOS\Release/../Src/LL/sys_spim.c:146
			if ( sSPIM.st == 0x01 ) {
     e9a:	810902b7          	lui	t0,0x81090
     e9e:	4505                	li	a0,1
     ea0:	00c2af03          	lw	t5,12(t0) # 8109000c <_ctype_+0xfffbfcb4>
     ea4:	feaf1ee3          	bne	t5,a0,ea0 <spim_cmdgen+0x1f4>
     ea8:	bdd1                	j	d7c <spim_cmdgen+0xd0>
D:\42__Project__CREOSS__SW\51__Lambda\CPUFW\21__BIOS\WS\BIOS\Release/../Src/LL/sys_spim.c:115
			} else if ( gss.opt_spim_n_rch==OPT_SPIM_RCH2 ) {
     eaa:	4ec8                	lw	a0,28(a3)
     eac:	f8751ce3          	bne	a0,t2,e44 <spim_cmdgen+0x198>
D:\42__Project__CREOSS__SW\51__Lambda\CPUFW\21__BIOS\WS\BIOS\Release/../Src/LL/sys_spim.c:116
				smonl ( st16[1], __LINE__ );
     eb0:	07400513          	li	a0,116
     eb4:	00af1123          	sh	a0,2(t5)
D:\42__Project__CREOSS__SW\51__Lambda\CPUFW\21__BIOS\WS\BIOS\Release/../Src/LL/sys_spim.c:117
				sDMAC.flow_ctrl = ( sDMAC.flow_ctrl & DMAC_FLOW_CTRL_RCH2_TCH_CLR ) | DMAC_FLOW_CTRL_RCH2_TCH0_EN;
     eb8:	81010f37          	lui	t5,0x81010
     ebc:	018f2503          	lw	a0,24(t5) # 81010018 <_ctype_+0xfff3fcc0>
     ec0:	fbb57513          	andi	a0,a0,-69
     ec4:	00456513          	ori	a0,a0,4
     ec8:	bfa5                	j	e40 <spim_cmdgen+0x194>
D:\42__Project__CREOSS__SW\51__Lambda\CPUFW\21__BIOS\WS\BIOS\Release/../Src/LL/sys_spim.c:120
		} else if ( (((uint32_t)(&cmd))&0xFF000000 ) == 0x50000000 ) {	// MB, DMA SRAM, TCH1
     eca:	50000437          	lui	s0,0x50000
     ece:	f6851be3          	bne	a0,s0,e44 <spim_cmdgen+0x198>
D:\42__Project__CREOSS__SW\51__Lambda\CPUFW\21__BIOS\WS\BIOS\Release/../Src/LL/sys_spim.c:121
			if ( gss.opt_spim_n_rch==OPT_SPIM_RCH1 ) {
     ed2:	4ec8                	lw	a0,28(a3)
     ed4:	ed11                	bnez	a0,ef0 <spim_cmdgen+0x244>
D:\42__Project__CREOSS__SW\51__Lambda\CPUFW\21__BIOS\WS\BIOS\Release/../Src/LL/sys_spim.c:122
				smonl ( st16[1], __LINE__ );
     ed6:	07a00513          	li	a0,122
     eda:	00af1123          	sh	a0,2(t5)
D:\42__Project__CREOSS__SW\51__Lambda\CPUFW\21__BIOS\WS\BIOS\Release/../Src/LL/sys_spim.c:123
				sDMAC.flow_ctrl = ( sDMAC.flow_ctrl & DMAC_FLOW_CTRL_RCH1_TCH_CLR ) | DMAC_FLOW_CTRL_RCH1_TCH1_EN;
     ede:	81010f37          	lui	t5,0x81010
     ee2:	018f2503          	lw	a0,24(t5) # 81010018 <_ctype_+0xfff3fcc0>
     ee6:	fdd57513          	andi	a0,a0,-35
     eea:	02056513          	ori	a0,a0,32
     eee:	bf89                	j	e40 <spim_cmdgen+0x194>
D:\42__Project__CREOSS__SW\51__Lambda\CPUFW\21__BIOS\WS\BIOS\Release/../Src/LL/sys_spim.c:124
			} else if ( gss.opt_spim_n_rch==OPT_SPIM_RCH2 ) {
     ef0:	4ec8                	lw	a0,28(a3)
     ef2:	f47519e3          	bne	a0,t2,e44 <spim_cmdgen+0x198>
D:\42__Project__CREOSS__SW\51__Lambda\CPUFW\21__BIOS\WS\BIOS\Release/../Src/LL/sys_spim.c:125
				smonl ( st16[1], __LINE__ );
     ef6:	07d00513          	li	a0,125
     efa:	00af1123          	sh	a0,2(t5)
D:\42__Project__CREOSS__SW\51__Lambda\CPUFW\21__BIOS\WS\BIOS\Release/../Src/LL/sys_spim.c:126
				sDMAC.flow_ctrl = ( sDMAC.flow_ctrl & DMAC_FLOW_CTRL_RCH2_TCH_CLR ) | DMAC_FLOW_CTRL_RCH2_TCH1_EN;
     efe:	81010f37          	lui	t5,0x81010
     f02:	018f2503          	lw	a0,24(t5) # 81010018 <_ctype_+0xfff3fcc0>
     f06:	fbb57513          	andi	a0,a0,-69
     f0a:	04056513          	ori	a0,a0,64
     f0e:	bf0d                	j	e40 <spim_cmdgen+0x194>
D:\42__Project__CREOSS__SW\51__Lambda\CPUFW\21__BIOS\WS\BIOS\Release/../Src/LL/sys_spim.c:160
		if (wargnbyte==4) warg_rev_byte = ((warg&0xFF)<<24) | ((warg&0xFF00)<<8) | ((warg>> 8)&0xFF00) | ((warg>>24)&0xFF);
     f10:	4511                	li	a0,4
     f12:	02a61f63          	bne	a2,a0,f50 <spim_cmdgen+0x2a4>
D:\42__Project__CREOSS__SW\51__Lambda\CPUFW\21__BIOS\WS\BIOS\Release/../Src/LL/sys_spim.c:160 (discriminator 1)
     f16:	018ed513          	srli	a0,t4,0x18
     f1a:	018e9313          	slli	t1,t4,0x18
     f1e:	00a36333          	or	t1,t1,a0
     f22:	00ff0f37          	lui	t5,0xff0
     f26:	008e9513          	slli	a0,t4,0x8
     f2a:	01e57533          	and	a0,a0,t5
     f2e:	6f41                	lui	t5,0x10
     f30:	00a36533          	or	a0,t1,a0
     f34:	f00f0f13          	addi	t5,t5,-256 # ff00 <strnlen+0xd86c>
     f38:	008ed313          	srli	t1,t4,0x8
     f3c:	01e37333          	and	t1,t1,t5
     f40:	00656333          	or	t1,a0,t1
D:\42__Project__CREOSS__SW\51__Lambda\CPUFW\21__BIOS\WS\BIOS\Release/../Src/LL/sys_spim.c:163
		if (wargnbyte==1) warg_rev_byte = ((warg&0xFF)    ) ;
     f44:	4505                	li	a0,1
     f46:	02a61b63          	bne	a2,a0,f7c <spim_cmdgen+0x2d0>
D:\42__Project__CREOSS__SW\51__Lambda\CPUFW\21__BIOS\WS\BIOS\Release/../Src/LL/sys_spim.c:163 (discriminator 1)
     f4a:	0ffef313          	zext.b	t1,t4
     f4e:	a03d                	j	f7c <spim_cmdgen+0x2d0>
D:\42__Project__CREOSS__SW\51__Lambda\CPUFW\21__BIOS\WS\BIOS\Release/../Src/LL/sys_spim.c:161
		if (wargnbyte==3) warg_rev_byte = ((warg&0xFF)<<16) | ((warg&0xFF00)   ) | ((warg>>16)&0xFF  ) ;
     f50:	450d                	li	a0,3
     f52:	0ea61563          	bne	a2,a0,103c <spim_cmdgen+0x390>
D:\42__Project__CREOSS__SW\51__Lambda\CPUFW\21__BIOS\WS\BIOS\Release/../Src/LL/sys_spim.c:161 (discriminator 1)
     f56:	010e9313          	slli	t1,t4,0x10
     f5a:	00ff0537          	lui	a0,0xff0
     f5e:	00a37333          	and	t1,t1,a0
     f62:	010ed513          	srli	a0,t4,0x10
     f66:	0ff57513          	zext.b	a0,a0
     f6a:	00a36533          	or	a0,t1,a0
     f6e:	6341                	lui	t1,0x10
     f70:	f0030313          	addi	t1,t1,-256 # ff00 <strnlen+0xd86c>
     f74:	006efeb3          	and	t4,t4,t1
     f78:	01d56333          	or	t1,a0,t4
D:\42__Project__CREOSS__SW\51__Lambda\CPUFW\21__BIOS\WS\BIOS\Release/../Src/LL/sys_spim.c:167
		if ( (((uint32_t)(&warg))&0xFF000000 ) == 0x40000000 ) {		// MA, CPU DATA SRAM, TCH0
     f7c:	00810f93          	addi	t6,sp,8
     f80:	ff000537          	lui	a0,0xff000
D:\42__Project__CREOSS__SW\51__Lambda\CPUFW\21__BIOS\WS\BIOS\Release/../Src/LL/sys_spim.c:164
		warg = warg_rev_byte;
     f84:	c41a                	sw	t1,8(sp)
D:\42__Project__CREOSS__SW\51__Lambda\CPUFW\21__BIOS\WS\BIOS\Release/../Src/LL/sys_spim.c:167
		if ( (((uint32_t)(&warg))&0xFF000000 ) == 0x40000000 ) {		// MA, CPU DATA SRAM, TCH0
     f86:	00aff533          	and	a0,t6,a0
     f8a:	40000eb7          	lui	t4,0x40000
     f8e:	0fd51963          	bne	a0,t4,1080 <spim_cmdgen+0x3d4>
D:\42__Project__CREOSS__SW\51__Lambda\CPUFW\21__BIOS\WS\BIOS\Release/../Src/LL/sys_spim.c:168
			if ( gss.opt_spim_n_rch==OPT_SPIM_RCH1 ) {
     f92:	4ec8                	lw	a0,28(a3)
     f94:	e171                	bnez	a0,1058 <spim_cmdgen+0x3ac>
D:\42__Project__CREOSS__SW\51__Lambda\CPUFW\21__BIOS\WS\BIOS\Release/../Src/LL/sys_spim.c:169
				smonl ( st16[1], __LINE__ );
     f96:	80ff0537          	lui	a0,0x80ff0
     f9a:	0a900e93          	li	t4,169
     f9e:	01d51123          	sh	t4,2(a0) # 80ff0002 <_ctype_+0xfff1fcaa>
D:\42__Project__CREOSS__SW\51__Lambda\CPUFW\21__BIOS\WS\BIOS\Release/../Src/LL/sys_spim.c:170
				sDMAC.flow_ctrl = ( sDMAC.flow_ctrl & DMAC_FLOW_CTRL_RCH1_TCH_CLR ) | DMAC_FLOW_CTRL_RCH1_TCH0_EN;
     fa2:	81010eb7          	lui	t4,0x81010
     fa6:	018ea503          	lw	a0,24(t4) # 81010018 <_ctype_+0xfff3fcc0>
     faa:	fdd57513          	andi	a0,a0,-35
     fae:	00256513          	ori	a0,a0,2
D:\42__Project__CREOSS__SW\51__Lambda\CPUFW\21__BIOS\WS\BIOS\Release/../Src/LL/sys_spim.c:182
				sDMAC.flow_ctrl = ( sDMAC.flow_ctrl & DMAC_FLOW_CTRL_RCH2_TCH_CLR ) | DMAC_FLOW_CTRL_RCH2_TCH1_EN;
     fb2:	00aeac23          	sw	a0,24(t4)
D:\42__Project__CREOSS__SW\51__Lambda\CPUFW\21__BIOS\WS\BIOS\Release/../Src/LL/sys_spim.c:186
		sSPIM.dma_rd_st_badr = (uint32_t) (&warg);		// data pointer to send to   FLASH
     fb6:	81090f37          	lui	t5,0x81090
     fba:	09ff2023          	sw	t6,128(t5) # 81090080 <_ctype_+0xfffbfd28>
D:\42__Project__CREOSS__SW\51__Lambda\CPUFW\21__BIOS\WS\BIOS\Release/../Src/LL/sys_spim.c:188
		smonl ( st16[1], __LINE__ );
     fbe:	80ff0537          	lui	a0,0x80ff0
     fc2:	0bc00293          	li	t0,188
     fc6:	00551123          	sh	t0,2(a0) # 80ff0002 <_ctype_+0xfff1fcaa>
D:\42__Project__CREOSS__SW\51__Lambda\CPUFW\21__BIOS\WS\BIOS\Release/../Src/LL/sys_spim.c:190
		smonl ( d32[0] , sDMAC.flow_ctrl >> 8 ) ;
     fca:	810103b7          	lui	t2,0x81010
     fce:	0183a283          	lw	t0,24(t2) # 81010018 <_ctype_+0xfff3fcc0>
     fd2:	0082d293          	srli	t0,t0,0x8
     fd6:	04552823          	sw	t0,80(a0)
D:\42__Project__CREOSS__SW\51__Lambda\CPUFW\21__BIOS\WS\BIOS\Release/../Src/LL/sys_spim.c:191
		smonl ( d32[1] , sDMAC.rch_src_sel    ) ;
     fda:	01c3a283          	lw	t0,28(t2)
     fde:	04552a23          	sw	t0,84(a0)
D:\42__Project__CREOSS__SW\51__Lambda\CPUFW\21__BIOS\WS\BIOS\Release/../Src/LL/sys_spim.c:192
		smonl ( d32[2] , sSPIM.dma_rd_st_badr ) ;
     fe2:	080f2283          	lw	t0,128(t5)
     fe6:	04552c23          	sw	t0,88(a0)
D:\42__Project__CREOSS__SW\51__Lambda\CPUFW\21__BIOS\WS\BIOS\Release/../Src/LL/sys_spim.c:193
		smonl ( d32[3] , sSPIM.dma_wr_st_badr ) ;
     fea:	084f2283          	lw	t0,132(t5)
     fee:	04552e23          	sw	t0,92(a0)
D:\42__Project__CREOSS__SW\51__Lambda\CPUFW\21__BIOS\WS\BIOS\Release/../Src/LL/sys_spim.c:194
		smonl ( d32[4] , wargnbyte ) ;
     ff2:	d130                	sw	a2,96(a0)
D:\42__Project__CREOSS__SW\51__Lambda\CPUFW\21__BIOS\WS\BIOS\Release/../Src/LL/sys_spim.c:195
		smonl ( d32[5] , (uint32_t) &warg ) ;
     ff4:	07f52223          	sw	t6,100(a0)
D:\42__Project__CREOSS__SW\51__Lambda\CPUFW\21__BIOS\WS\BIOS\Release/../Src/LL/sys_spim.c:196
		smonl ( d32[6] , warg ) ;
     ff8:	06652423          	sw	t1,104(a0)
D:\42__Project__CREOSS__SW\51__Lambda\CPUFW\21__BIOS\WS\BIOS\Release/../Src/LL/sys_spim.c:203
		sSPIM.task_schedule[ntask++] = ( ((wargnbyte - 1)<<4) | TID_WDAT_1IO  );		
     ffc:	167d                	addi	a2,a2,-1
D:\42__Project__CREOSS__SW\51__Lambda\CPUFW\21__BIOS\WS\BIOS\Release/../Src/LL/sys_spim.c:197
		smonl ( d32[7] , 0 ) ;
     ffe:	06052623          	sw	zero,108(a0)
D:\42__Project__CREOSS__SW\51__Lambda\CPUFW\21__BIOS\WS\BIOS\Release/../Src/LL/sys_spim.c:202
		sSPIM.task_schedule[ntask++] = ( ((0x0          )<<4) | TID_SSN_SEL   );		
    1002:	4305                	li	t1,1
D:\42__Project__CREOSS__SW\51__Lambda\CPUFW\21__BIOS\WS\BIOS\Release/../Src/LL/sys_spim.c:203
		sSPIM.task_schedule[ntask++] = ( ((wargnbyte - 1)<<4) | TID_WDAT_1IO  );		
    1004:	0612                	slli	a2,a2,0x4
D:\42__Project__CREOSS__SW\51__Lambda\CPUFW\21__BIOS\WS\BIOS\Release/../Src/LL/sys_spim.c:202
		sSPIM.task_schedule[ntask++] = ( ((0x0          )<<4) | TID_SSN_SEL   );		
    1006:	0c6f2023          	sw	t1,192(t5)
D:\42__Project__CREOSS__SW\51__Lambda\CPUFW\21__BIOS\WS\BIOS\Release/../Src/LL/sys_spim.c:203
		sSPIM.task_schedule[ntask++] = ( ((wargnbyte - 1)<<4) | TID_WDAT_1IO  );		
    100a:	00666613          	ori	a2,a2,6
    100e:	0ccf2223          	sw	a2,196(t5)
D:\42__Project__CREOSS__SW\51__Lambda\CPUFW\21__BIOS\WS\BIOS\Release/../Src/LL/sys_spim.c:204
		sSPIM.task_schedule[ntask++] = ( ((0x0          )<<4) | TID_IDLE      );
    1012:	0c0f2423          	sw	zero,200(t5)
D:\42__Project__CREOSS__SW\51__Lambda\CPUFW\21__BIOS\WS\BIOS\Release/../Src/LL/sys_spim.c:205
		sSPIM.ctrl_ac = SPIM_CTRL_AC_TASK_TRIG;
    1016:	4609                	li	a2,2
    1018:	00cf2a23          	sw	a2,20(t5)
D:\42__Project__CREOSS__SW\51__Lambda\CPUFW\21__BIOS\WS\BIOS\Release/../Src/LL/sys_spim.c:206
		macro_nop_x4 ( );
    101c:	0001                	nop
    101e:	0001                	nop
    1020:	0001                	nop
    1022:	0001                	nop
D:\42__Project__CREOSS__SW\51__Lambda\CPUFW\21__BIOS\WS\BIOS\Release/../Src/LL/sys_spim.c:208
		smonl ( st16[1], __LINE__ );
    1024:	0d000613          	li	a2,208
    1028:	00c51123          	sh	a2,2(a0)
D:\42__Project__CREOSS__SW\51__Lambda\CPUFW\21__BIOS\WS\BIOS\Release/../Src/LL/sys_spim.c:211
			if ( sSPIM.st == 0x01 ) {
    102c:	81090337          	lui	t1,0x81090
    1030:	4605                	li	a2,1
    1032:	00c32503          	lw	a0,12(t1) # 8109000c <_ctype_+0xfffbfcb4>
    1036:	fec51ee3          	bne	a0,a2,1032 <spim_cmdgen+0x386>
    103a:	bb89                	j	d8c <spim_cmdgen+0xe0>
D:\42__Project__CREOSS__SW\51__Lambda\CPUFW\21__BIOS\WS\BIOS\Release/../Src/LL/sys_spim.c:162
		if (wargnbyte==2) warg_rev_byte = ((warg&0xFF)<< 8) | ((warg&0xFF00)>>8) ;
    103c:	4509                	li	a0,2
    103e:	f0a613e3          	bne	a2,a0,f44 <spim_cmdgen+0x298>
    1042:	008f9313          	slli	t1,t6,0x8
    1046:	008fdf93          	srli	t6,t6,0x8
    104a:	01f36fb3          	or	t6,t1,t6
    104e:	010f9313          	slli	t1,t6,0x10
    1052:	01035313          	srli	t1,t1,0x10
D:\42__Project__CREOSS__SW\51__Lambda\CPUFW\21__BIOS\WS\BIOS\Release/../Src/LL/sys_spim.c:163 (discriminator 1)
		if (wargnbyte==1) warg_rev_byte = ((warg&0xFF)    ) ;
    1056:	b71d                	j	f7c <spim_cmdgen+0x2d0>
D:\42__Project__CREOSS__SW\51__Lambda\CPUFW\21__BIOS\WS\BIOS\Release/../Src/LL/sys_spim.c:171
			} else if ( gss.opt_spim_n_rch==OPT_SPIM_RCH2 ) {
    1058:	01c6ae83          	lw	t4,28(a3)
    105c:	4505                	li	a0,1
    105e:	f4ae9ce3          	bne	t4,a0,fb6 <spim_cmdgen+0x30a>
D:\42__Project__CREOSS__SW\51__Lambda\CPUFW\21__BIOS\WS\BIOS\Release/../Src/LL/sys_spim.c:172
				smonl ( st16[1], __LINE__ );
    1062:	80ff0537          	lui	a0,0x80ff0
    1066:	0ac00e93          	li	t4,172
    106a:	01d51123          	sh	t4,2(a0) # 80ff0002 <_ctype_+0xfff1fcaa>
D:\42__Project__CREOSS__SW\51__Lambda\CPUFW\21__BIOS\WS\BIOS\Release/../Src/LL/sys_spim.c:173
				sDMAC.flow_ctrl = ( sDMAC.flow_ctrl & DMAC_FLOW_CTRL_RCH2_TCH_CLR ) | DMAC_FLOW_CTRL_RCH2_TCH0_EN;
    106e:	81010eb7          	lui	t4,0x81010
    1072:	018ea503          	lw	a0,24(t4) # 81010018 <_ctype_+0xfff3fcc0>
    1076:	fbb57513          	andi	a0,a0,-69
    107a:	00456513          	ori	a0,a0,4
    107e:	bf15                	j	fb2 <spim_cmdgen+0x306>
D:\42__Project__CREOSS__SW\51__Lambda\CPUFW\21__BIOS\WS\BIOS\Release/../Src/LL/sys_spim.c:176
		} else if ( (((uint32_t)(&warg))&0xFF000000 ) == 0x50000000 ) {	// MB, DMA SRAM, TCH1
    1080:	50000eb7          	lui	t4,0x50000
    1084:	f3d519e3          	bne	a0,t4,fb6 <spim_cmdgen+0x30a>
D:\42__Project__CREOSS__SW\51__Lambda\CPUFW\21__BIOS\WS\BIOS\Release/../Src/LL/sys_spim.c:177
			if ( gss.opt_spim_n_rch==OPT_SPIM_RCH1 ) {
    1088:	4ec8                	lw	a0,28(a3)
    108a:	e105                	bnez	a0,10aa <spim_cmdgen+0x3fe>
D:\42__Project__CREOSS__SW\51__Lambda\CPUFW\21__BIOS\WS\BIOS\Release/../Src/LL/sys_spim.c:178
				smonl ( st16[1], __LINE__ );
    108c:	80ff0537          	lui	a0,0x80ff0
    1090:	0b200e93          	li	t4,178
    1094:	01d51123          	sh	t4,2(a0) # 80ff0002 <_ctype_+0xfff1fcaa>
D:\42__Project__CREOSS__SW\51__Lambda\CPUFW\21__BIOS\WS\BIOS\Release/../Src/LL/sys_spim.c:179
				sDMAC.flow_ctrl = ( sDMAC.flow_ctrl & DMAC_FLOW_CTRL_RCH1_TCH_CLR ) | DMAC_FLOW_CTRL_RCH1_TCH1_EN;
    1098:	81010eb7          	lui	t4,0x81010
    109c:	018ea503          	lw	a0,24(t4) # 81010018 <_ctype_+0xfff3fcc0>
    10a0:	fdd57513          	andi	a0,a0,-35
    10a4:	02056513          	ori	a0,a0,32
    10a8:	b729                	j	fb2 <spim_cmdgen+0x306>
D:\42__Project__CREOSS__SW\51__Lambda\CPUFW\21__BIOS\WS\BIOS\Release/../Src/LL/sys_spim.c:180
			} else if ( gss.opt_spim_n_rch==OPT_SPIM_RCH2 ) {
    10aa:	01c6ae83          	lw	t4,28(a3)
    10ae:	4505                	li	a0,1
    10b0:	f0ae93e3          	bne	t4,a0,fb6 <spim_cmdgen+0x30a>
D:\42__Project__CREOSS__SW\51__Lambda\CPUFW\21__BIOS\WS\BIOS\Release/../Src/LL/sys_spim.c:181
				smonl ( st16[1], __LINE__ );
    10b4:	80ff0537          	lui	a0,0x80ff0
    10b8:	0b500e93          	li	t4,181
    10bc:	01d51123          	sh	t4,2(a0) # 80ff0002 <_ctype_+0xfff1fcaa>
D:\42__Project__CREOSS__SW\51__Lambda\CPUFW\21__BIOS\WS\BIOS\Release/../Src/LL/sys_spim.c:182
				sDMAC.flow_ctrl = ( sDMAC.flow_ctrl & DMAC_FLOW_CTRL_RCH2_TCH_CLR ) | DMAC_FLOW_CTRL_RCH2_TCH1_EN;
    10c0:	81010eb7          	lui	t4,0x81010
    10c4:	018ea503          	lw	a0,24(t4) # 81010018 <_ctype_+0xfff3fcc0>
    10c8:	fbb57513          	andi	a0,a0,-69
    10cc:	04056513          	ori	a0,a0,64
    10d0:	b5cd                	j	fb2 <spim_cmdgen+0x306>
D:\42__Project__CREOSS__SW\51__Lambda\CPUFW\21__BIOS\WS\BIOS\Release/../Src/LL/sys_spim.c:224
		if ( (((uint32_t)(wbuf))&0xFF000000 ) == 0x40000000 ) {		// MA, CPU DATA SRAM, TCH0
    10d2:	ff000537          	lui	a0,0xff000
    10d6:	8d7d                	and	a0,a0,a5
    10d8:	40000337          	lui	t1,0x40000
    10dc:	0a651163          	bne	a0,t1,117e <spim_cmdgen+0x4d2>
D:\42__Project__CREOSS__SW\51__Lambda\CPUFW\21__BIOS\WS\BIOS\Release/../Src/LL/sys_spim.c:225
			if ( gss.opt_spim_n_rch==OPT_SPIM_RCH1 ) {
    10e0:	4ec8                	lw	a0,28(a3)
    10e2:	ed2d                	bnez	a0,115c <spim_cmdgen+0x4b0>
D:\42__Project__CREOSS__SW\51__Lambda\CPUFW\21__BIOS\WS\BIOS\Release/../Src/LL/sys_spim.c:226
				smonl ( st16[1], __LINE__ );
    10e4:	0e200513          	li	a0,226
    10e8:	00a61123          	sh	a0,2(a2)
D:\42__Project__CREOSS__SW\51__Lambda\CPUFW\21__BIOS\WS\BIOS\Release/../Src/LL/sys_spim.c:227
				sDMAC.flow_ctrl = ( sDMAC.flow_ctrl & DMAC_FLOW_CTRL_RCH1_TCH_CLR ) | DMAC_FLOW_CTRL_RCH1_TCH0_EN;
    10ec:	81010537          	lui	a0,0x81010
    10f0:	4d10                	lw	a2,24(a0)
    10f2:	fdd67613          	andi	a2,a2,-35
    10f6:	00266613          	ori	a2,a2,2
D:\42__Project__CREOSS__SW\51__Lambda\CPUFW\21__BIOS\WS\BIOS\Release/../Src/LL/sys_spim.c:239
				sDMAC.flow_ctrl = ( sDMAC.flow_ctrl & DMAC_FLOW_CTRL_RCH2_TCH_CLR ) | DMAC_FLOW_CTRL_RCH2_TCH1_EN;
    10fa:	cd10                	sw	a2,24(a0)
D:\42__Project__CREOSS__SW\51__Lambda\CPUFW\21__BIOS\WS\BIOS\Release/../Src/LL/sys_spim.c:243
		sSPIM.dma_rd_st_badr   = (uint32_t) (wbuf);		// data pointer to send to   FLASH
    10fc:	81090637          	lui	a2,0x81090
    1100:	08060613          	addi	a2,a2,128 # 81090080 <_ctype_+0xfffbfd28>
    1104:	c21c                	sw	a5,0(a2)
D:\42__Project__CREOSS__SW\51__Lambda\CPUFW\21__BIOS\WS\BIOS\Release/../Src/LL/sys_spim.c:245
		smonl ( d32[0] , sDMAC.flow_ctrl >> 8 ) ;
    1106:	81010337          	lui	t1,0x81010
    110a:	01832503          	lw	a0,24(t1) # 81010018 <_ctype_+0xfff3fcc0>
    110e:	80ff07b7          	lui	a5,0x80ff0
D:\42__Project__CREOSS__SW\51__Lambda\CPUFW\21__BIOS\WS\BIOS\Release/../Src/LL/sys_spim.c:258
			if (nbyte_remain>=SPIM_NB_PER_TASK) {
    1112:	7ff00f13          	li	t5,2047
D:\42__Project__CREOSS__SW\51__Lambda\CPUFW\21__BIOS\WS\BIOS\Release/../Src/LL/sys_spim.c:245
		smonl ( d32[0] , sDMAC.flow_ctrl >> 8 ) ;
    1116:	8121                	srli	a0,a0,0x8
    1118:	cba8                	sw	a0,80(a5)
D:\42__Project__CREOSS__SW\51__Lambda\CPUFW\21__BIOS\WS\BIOS\Release/../Src/LL/sys_spim.c:246
		smonl ( d32[1] , sDMAC.rch_src_sel    ) ;
    111a:	01c32503          	lw	a0,28(t1)
D:\42__Project__CREOSS__SW\51__Lambda\CPUFW\21__BIOS\WS\BIOS\Release/../Src/LL/sys_spim.c:259
				sSPIM.task_schedule[ntask++] = (  ((SPIM_NB_PER_TASK - 1)<<4)  | TID_WDAT_1IO );
    111e:	6321                	lui	t1,0x8
    1120:	81090eb7          	lui	t4,0x81090
D:\42__Project__CREOSS__SW\51__Lambda\CPUFW\21__BIOS\WS\BIOS\Release/../Src/LL/sys_spim.c:246
		smonl ( d32[1] , sDMAC.rch_src_sel    ) ;
    1124:	cbe8                	sw	a0,84(a5)
D:\42__Project__CREOSS__SW\51__Lambda\CPUFW\21__BIOS\WS\BIOS\Release/../Src/LL/sys_spim.c:247
		smonl ( d32[2] , sSPIM.dma_rd_st_badr ) ;
    1126:	4208                	lw	a0,0(a2)
D:\42__Project__CREOSS__SW\51__Lambda\CPUFW\21__BIOS\WS\BIOS\Release/../Src/LL/sys_spim.c:259
				sSPIM.task_schedule[ntask++] = (  ((SPIM_NB_PER_TASK - 1)<<4)  | TID_WDAT_1IO );
    1128:	1359                	addi	t1,t1,-10
D:\42__Project__CREOSS__SW\51__Lambda\CPUFW\21__BIOS\WS\BIOS\Release/../Src/LL/sys_spim.c:247
		smonl ( d32[2] , sSPIM.dma_rd_st_badr ) ;
    112a:	cfa8                	sw	a0,88(a5)
D:\42__Project__CREOSS__SW\51__Lambda\CPUFW\21__BIOS\WS\BIOS\Release/../Src/LL/sys_spim.c:248
		smonl ( d32[3] , sSPIM.dma_wr_st_badr ) ;
    112c:	4248                	lw	a0,4(a2)
    112e:	cfe8                	sw	a0,92(a5)
D:\42__Project__CREOSS__SW\51__Lambda\CPUFW\21__BIOS\WS\BIOS\Release/../Src/LL/sys_spim.c:250
		smonl ( st16[1], __LINE__ );
    1130:	0fa00513          	li	a0,250
    1134:	00a79123          	sh	a0,2(a5) # 80ff0002 <_ctype_+0xfff1fcaa>
D:\42__Project__CREOSS__SW\51__Lambda\CPUFW\21__BIOS\WS\BIOS\Release/../Src/LL/sys_spim.c:255
		sSPIM.task_schedule[ntask++] = ( (0x0<<4)   |   TID_SSN_SEL   );		
    1138:	4785                	li	a5,1
    113a:	c23c                	sw	a5,64(a2)
    113c:	853a                	mv	a0,a4
D:\42__Project__CREOSS__SW\51__Lambda\CPUFW\21__BIOS\WS\BIOS\Release/../Src/LL/sys_spim.c:259
				sSPIM.task_schedule[ntask++] = (  ((SPIM_NB_PER_TASK - 1)<<4)  | TID_WDAT_1IO );
    113e:	863e                	mv	a2,a5
    1140:	0785                	addi	a5,a5,1
    1142:	0ff7f793          	zext.b	a5,a5
    1146:	03060613          	addi	a2,a2,48
D:\42__Project__CREOSS__SW\51__Lambda\CPUFW\21__BIOS\WS\BIOS\Release/../Src/LL/sys_spim.c:258
			if (nbyte_remain>=SPIM_NB_PER_TASK) {
    114a:	06af7d63          	bgeu	t5,a0,11c4 <spim_cmdgen+0x518>
D:\42__Project__CREOSS__SW\51__Lambda\CPUFW\21__BIOS\WS\BIOS\Release/../Src/LL/sys_spim.c:259
				sSPIM.task_schedule[ntask++] = (  ((SPIM_NB_PER_TASK - 1)<<4)  | TID_WDAT_1IO );
    114e:	060a                	slli	a2,a2,0x2
    1150:	9676                	add	a2,a2,t4
    1152:	00662023          	sw	t1,0(a2)
D:\42__Project__CREOSS__SW\51__Lambda\CPUFW\21__BIOS\WS\BIOS\Release/../Src/LL/sys_spim.c:260
				nbyte_remain -= SPIM_NB_PER_TASK;
    1156:	80050513          	addi	a0,a0,-2048 # 8100f800 <_ctype_+0xfff3f4a8>
D:\42__Project__CREOSS__SW\51__Lambda\CPUFW\21__BIOS\WS\BIOS\Release/../Src/LL/sys_spim.c:258
			if (nbyte_remain>=SPIM_NB_PER_TASK) {
    115a:	b7d5                	j	113e <spim_cmdgen+0x492>
D:\42__Project__CREOSS__SW\51__Lambda\CPUFW\21__BIOS\WS\BIOS\Release/../Src/LL/sys_spim.c:228
			} else if ( gss.opt_spim_n_rch==OPT_SPIM_RCH2 ) {
    115c:	01c6a303          	lw	t1,28(a3)
    1160:	4505                	li	a0,1
    1162:	f8a31de3          	bne	t1,a0,10fc <spim_cmdgen+0x450>
D:\42__Project__CREOSS__SW\51__Lambda\CPUFW\21__BIOS\WS\BIOS\Release/../Src/LL/sys_spim.c:229
				smonl ( st16[1], __LINE__ );
    1166:	0e500513          	li	a0,229
    116a:	00a61123          	sh	a0,2(a2)
D:\42__Project__CREOSS__SW\51__Lambda\CPUFW\21__BIOS\WS\BIOS\Release/../Src/LL/sys_spim.c:230
				sDMAC.flow_ctrl = ( sDMAC.flow_ctrl & DMAC_FLOW_CTRL_RCH2_TCH_CLR ) | DMAC_FLOW_CTRL_RCH2_TCH0_EN;
    116e:	81010537          	lui	a0,0x81010
    1172:	4d10                	lw	a2,24(a0)
    1174:	fbb67613          	andi	a2,a2,-69
    1178:	00466613          	ori	a2,a2,4
    117c:	bfbd                	j	10fa <spim_cmdgen+0x44e>
D:\42__Project__CREOSS__SW\51__Lambda\CPUFW\21__BIOS\WS\BIOS\Release/../Src/LL/sys_spim.c:233
		} else if ( (((uint32_t)(wbuf))&0xFF000000 ) == 0x50000000 ) {	// MB, DMA SRAM, TCH1
    117e:	50000337          	lui	t1,0x50000
    1182:	f6651de3          	bne	a0,t1,10fc <spim_cmdgen+0x450>
D:\42__Project__CREOSS__SW\51__Lambda\CPUFW\21__BIOS\WS\BIOS\Release/../Src/LL/sys_spim.c:234
			if ( gss.opt_spim_n_rch==OPT_SPIM_RCH1 ) {
    1186:	4ec8                	lw	a0,28(a3)
    1188:	ed09                	bnez	a0,11a2 <spim_cmdgen+0x4f6>
D:\42__Project__CREOSS__SW\51__Lambda\CPUFW\21__BIOS\WS\BIOS\Release/../Src/LL/sys_spim.c:235
				smonl ( st16[1], __LINE__ );
    118a:	0eb00513          	li	a0,235
    118e:	00a61123          	sh	a0,2(a2)
D:\42__Project__CREOSS__SW\51__Lambda\CPUFW\21__BIOS\WS\BIOS\Release/../Src/LL/sys_spim.c:236
				sDMAC.flow_ctrl = ( sDMAC.flow_ctrl & DMAC_FLOW_CTRL_RCH1_TCH_CLR ) | DMAC_FLOW_CTRL_RCH1_TCH1_EN;
    1192:	81010537          	lui	a0,0x81010
    1196:	4d10                	lw	a2,24(a0)
    1198:	fdd67613          	andi	a2,a2,-35
    119c:	02066613          	ori	a2,a2,32
    11a0:	bfa9                	j	10fa <spim_cmdgen+0x44e>
D:\42__Project__CREOSS__SW\51__Lambda\CPUFW\21__BIOS\WS\BIOS\Release/../Src/LL/sys_spim.c:237
			} else if ( gss.opt_spim_n_rch==OPT_SPIM_RCH2 ) {
    11a2:	01c6a303          	lw	t1,28(a3)
    11a6:	4505                	li	a0,1
    11a8:	f4a31ae3          	bne	t1,a0,10fc <spim_cmdgen+0x450>
D:\42__Project__CREOSS__SW\51__Lambda\CPUFW\21__BIOS\WS\BIOS\Release/../Src/LL/sys_spim.c:238
				smonl ( st16[1], __LINE__ );
    11ac:	0ee00513          	li	a0,238
    11b0:	00a61123          	sh	a0,2(a2)
D:\42__Project__CREOSS__SW\51__Lambda\CPUFW\21__BIOS\WS\BIOS\Release/../Src/LL/sys_spim.c:239
				sDMAC.flow_ctrl = ( sDMAC.flow_ctrl & DMAC_FLOW_CTRL_RCH2_TCH_CLR ) | DMAC_FLOW_CTRL_RCH2_TCH1_EN;
    11b4:	81010537          	lui	a0,0x81010
    11b8:	4d10                	lw	a2,24(a0)
    11ba:	fbb67613          	andi	a2,a2,-69
    11be:	04066613          	ori	a2,a2,64
    11c2:	bf25                	j	10fa <spim_cmdgen+0x44e>
    11c4:	00b75513          	srli	a0,a4,0xb
D:\42__Project__CREOSS__SW\51__Lambda\CPUFW\21__BIOS\WS\BIOS\Release/../Src/LL/sys_spim.c:262
				sSPIM.task_schedule[ntask++] = (  ((nbyte_remain     - 1)<<4)  | TID_WDAT_1IO );
    11c8:	fff70793          	addi	a5,a4,-1
    11cc:	80000713          	li	a4,-2048
    11d0:	02e50733          	mul	a4,a0,a4
    11d4:	060a                	slli	a2,a2,0x2
    11d6:	97ba                	add	a5,a5,a4
    11d8:	0792                	slli	a5,a5,0x4
    11da:	81090737          	lui	a4,0x81090
    11de:	0067e793          	ori	a5,a5,6
    11e2:	963a                	add	a2,a2,a4
    11e4:	c21c                	sw	a5,0(a2)
D:\42__Project__CREOSS__SW\51__Lambda\CPUFW\21__BIOS\WS\BIOS\Release/../Src/LL/sys_spim.c:259
				sSPIM.task_schedule[ntask++] = (  ((SPIM_NB_PER_TASK - 1)<<4)  | TID_WDAT_1IO );
    11e6:	00250793          	addi	a5,a0,2 # 81010002 <_ctype_+0xfff3fcaa>
D:\42__Project__CREOSS__SW\51__Lambda\CPUFW\21__BIOS\WS\BIOS\Release/../Src/LL/sys_spim.c:267
		sSPIM.task_schedule[ntask++] = ( (0x0<<4) | TID_IDLE     );
    11ea:	0ff7f793          	zext.b	a5,a5
    11ee:	03078793          	addi	a5,a5,48
    11f2:	078a                	slli	a5,a5,0x2
    11f4:	97ba                	add	a5,a5,a4
    11f6:	0007a023          	sw	zero,0(a5)
D:\42__Project__CREOSS__SW\51__Lambda\CPUFW\21__BIOS\WS\BIOS\Release/../Src/LL/sys_spim.c:268
		sSPIM.ctrl_ac = SPIM_CTRL_AC_TASK_TRIG;
    11fa:	4789                	li	a5,2
    11fc:	cb5c                	sw	a5,20(a4)
D:\42__Project__CREOSS__SW\51__Lambda\CPUFW\21__BIOS\WS\BIOS\Release/../Src/LL/sys_spim.c:269
		macro_nop_x4 ( );
    11fe:	0001                	nop
    1200:	0001                	nop
    1202:	0001                	nop
    1204:	0001                	nop
D:\42__Project__CREOSS__SW\51__Lambda\CPUFW\21__BIOS\WS\BIOS\Release/../Src/LL/sys_spim.c:270
		smonl ( st16[1], __LINE__ );
    1206:	80ff07b7          	lui	a5,0x80ff0
    120a:	10e00713          	li	a4,270
    120e:	00e79123          	sh	a4,2(a5) # 80ff0002 <_ctype_+0xfff1fcaa>
D:\42__Project__CREOSS__SW\51__Lambda\CPUFW\21__BIOS\WS\BIOS\Release/../Src/LL/sys_spim.c:272
			if ( sSPIM.st == 0x01 ) {
    1212:	81090637          	lui	a2,0x81090
    1216:	4785                	li	a5,1
    1218:	4658                	lw	a4,12(a2)
    121a:	fef71fe3          	bne	a4,a5,1218 <spim_cmdgen+0x56c>
    121e:	bebd                	j	d9c <spim_cmdgen+0xf0>
D:\42__Project__CREOSS__SW\51__Lambda\CPUFW\21__BIOS\WS\BIOS\Release/../Src/LL/sys_spim.c:286
		smonl ( st16[1], __LINE__ );
    1220:	11e00713          	li	a4,286
    1224:	00e79123          	sh	a4,2(a5)
D:\42__Project__CREOSS__SW\51__Lambda\CPUFW\21__BIOS\WS\BIOS\Release/../Src/LL/sys_spim.c:289
		if ( (((uint32_t)(rbuf))&0xFF000000 ) == 0x40000000 ) {		// MA, CPU DATA SRAM, TCH0
    1228:	ff000737          	lui	a4,0xff000
    122c:	00e8f733          	and	a4,a7,a4
    1230:	40000637          	lui	a2,0x40000
    1234:	0ac71d63          	bne	a4,a2,12ee <spim_cmdgen+0x642>
D:\42__Project__CREOSS__SW\51__Lambda\CPUFW\21__BIOS\WS\BIOS\Release/../Src/LL/sys_spim.c:290
			if ( gss.opt_spim_n_rch==OPT_SPIM_RCH1 ) {
    1238:	4ed8                	lw	a4,28(a3)
    123a:	eb51                	bnez	a4,12ce <spim_cmdgen+0x622>
D:\42__Project__CREOSS__SW\51__Lambda\CPUFW\21__BIOS\WS\BIOS\Release/../Src/LL/sys_spim.c:291
				smonl ( st16[1], __LINE__ );
    123c:	12300713          	li	a4,291
    1240:	00e79123          	sh	a4,2(a5)
D:\42__Project__CREOSS__SW\51__Lambda\CPUFW\21__BIOS\WS\BIOS\Release/../Src/LL/sys_spim.c:292
				sDMAC.flow_ctrl = ( sDMAC.flow_ctrl & DMAC_FLOW_CTRL_RCH1_TCH_CLR ) | DMAC_FLOW_CTRL_RCH1_TCH0_EN;
    1244:	81010737          	lui	a4,0x81010
    1248:	4f1c                	lw	a5,24(a4)
    124a:	fdd7f793          	andi	a5,a5,-35
    124e:	0027e793          	ori	a5,a5,2
D:\42__Project__CREOSS__SW\51__Lambda\CPUFW\21__BIOS\WS\BIOS\Release/../Src/LL/sys_spim.c:304
				sDMAC.flow_ctrl = ( sDMAC.flow_ctrl & DMAC_FLOW_CTRL_RCH2_TCH_CLR ) | DMAC_FLOW_CTRL_RCH2_TCH1_EN;
    1252:	cf1c                	sw	a5,24(a4)
D:\42__Project__CREOSS__SW\51__Lambda\CPUFW\21__BIOS\WS\BIOS\Release/../Src/LL/sys_spim.c:308
		sSPIM.dma_wr_st_badr = (uint32_t) (rbuf);
    1254:	81090737          	lui	a4,0x81090
    1258:	08070713          	addi	a4,a4,128 # 81090080 <_ctype_+0xfffbfd28>
    125c:	01172223          	sw	a7,4(a4)
D:\42__Project__CREOSS__SW\51__Lambda\CPUFW\21__BIOS\WS\BIOS\Release/../Src/LL/sys_spim.c:310
		smonl ( d32[0] , sDMAC.flow_ctrl >> 8 ) ;
    1260:	81010637          	lui	a2,0x81010
    1264:	4e14                	lw	a3,24(a2)
    1266:	80ff07b7          	lui	a5,0x80ff0
D:\42__Project__CREOSS__SW\51__Lambda\CPUFW\21__BIOS\WS\BIOS\Release/../Src/LL/sys_spim.c:331
			if ( nbyte_remain >= SPIM_NB_PER_TASK ) {
    126a:	7ff00e93          	li	t4,2047
D:\42__Project__CREOSS__SW\51__Lambda\CPUFW\21__BIOS\WS\BIOS\Release/../Src/LL/sys_spim.c:310
		smonl ( d32[0] , sDMAC.flow_ctrl >> 8 ) ;
    126e:	82a1                	srli	a3,a3,0x8
    1270:	cbb4                	sw	a3,80(a5)
D:\42__Project__CREOSS__SW\51__Lambda\CPUFW\21__BIOS\WS\BIOS\Release/../Src/LL/sys_spim.c:311
		smonl ( d32[1] , sDMAC.rch_src_sel    ) ;
    1272:	4e54                	lw	a3,28(a2)
D:\42__Project__CREOSS__SW\51__Lambda\CPUFW\21__BIOS\WS\BIOS\Release/../Src/LL/sys_spim.c:333
				sSPIM.task_schedule[ntask++] = ( ((SPIM_NB_PER_TASK - 1)<<4) | TID_RDAT_1IO  );
    1274:	6621                	lui	a2,0x8
D:\42__Project__CREOSS__SW\51__Lambda\CPUFW\21__BIOS\WS\BIOS\Release/../Src/LL/sys_spim.c:332
				smonl ( st16[1], __LINE__ );
    1276:	14c00313          	li	t1,332
D:\42__Project__CREOSS__SW\51__Lambda\CPUFW\21__BIOS\WS\BIOS\Release/../Src/LL/sys_spim.c:311
		smonl ( d32[1] , sDMAC.rch_src_sel    ) ;
    127a:	cbf4                	sw	a3,84(a5)
D:\42__Project__CREOSS__SW\51__Lambda\CPUFW\21__BIOS\WS\BIOS\Release/../Src/LL/sys_spim.c:312
		smonl ( d32[2] , sSPIM.dma_rd_st_badr ) ;
    127c:	4314                	lw	a3,0(a4)
D:\42__Project__CREOSS__SW\51__Lambda\CPUFW\21__BIOS\WS\BIOS\Release/../Src/LL/sys_spim.c:333
				sSPIM.task_schedule[ntask++] = ( ((SPIM_NB_PER_TASK - 1)<<4) | TID_RDAT_1IO  );
    127e:	81090537          	lui	a0,0x81090
    1282:	1665                	addi	a2,a2,-7
D:\42__Project__CREOSS__SW\51__Lambda\CPUFW\21__BIOS\WS\BIOS\Release/../Src/LL/sys_spim.c:312
		smonl ( d32[2] , sSPIM.dma_rd_st_badr ) ;
    1284:	cfb4                	sw	a3,88(a5)
D:\42__Project__CREOSS__SW\51__Lambda\CPUFW\21__BIOS\WS\BIOS\Release/../Src/LL/sys_spim.c:313
		smonl ( d32[3] , sSPIM.dma_wr_st_badr ) ;
    1286:	4354                	lw	a3,4(a4)
    1288:	cff4                	sw	a3,92(a5)
D:\42__Project__CREOSS__SW\51__Lambda\CPUFW\21__BIOS\WS\BIOS\Release/../Src/LL/sys_spim.c:314
		smonl ( d32[4] , rnbyte ) ;
    128a:	0707a023          	sw	a6,96(a5) # 80ff0060 <_ctype_+0xfff1fd08>
D:\42__Project__CREOSS__SW\51__Lambda\CPUFW\21__BIOS\WS\BIOS\Release/../Src/LL/sys_spim.c:315
		smonl ( d32[5] , (uint32_t) rbuf ) ;
    128e:	0717a223          	sw	a7,100(a5)
D:\42__Project__CREOSS__SW\51__Lambda\CPUFW\21__BIOS\WS\BIOS\Release/../Src/LL/sys_spim.c:316
		smonl ( d32[6] , 0 ) ;
    1292:	0607a423          	sw	zero,104(a5)
D:\42__Project__CREOSS__SW\51__Lambda\CPUFW\21__BIOS\WS\BIOS\Release/../Src/LL/sys_spim.c:317
		smonl ( d32[7] , 0 ) ;
    1296:	0607a623          	sw	zero,108(a5)
D:\42__Project__CREOSS__SW\51__Lambda\CPUFW\21__BIOS\WS\BIOS\Release/../Src/LL/sys_spim.c:321
		smonl ( st16[1], __LINE__ );
    129a:	14100693          	li	a3,321
    129e:	00d79123          	sh	a3,2(a5)
D:\42__Project__CREOSS__SW\51__Lambda\CPUFW\21__BIOS\WS\BIOS\Release/../Src/LL/sys_spim.c:324
		sSPIM.task_schedule[ntask++] = ( (0x0<<4) |   TID_SSN_SEL );		
    12a2:	4785                	li	a5,1
    12a4:	c33c                	sw	a5,64(a4)
    12a6:	86c2                	mv	a3,a6
    12a8:	4705                	li	a4,1
D:\42__Project__CREOSS__SW\51__Lambda\CPUFW\21__BIOS\WS\BIOS\Release/../Src/LL/sys_spim.c:332
				smonl ( st16[1], __LINE__ );
    12aa:	80ff08b7          	lui	a7,0x80ff0
D:\42__Project__CREOSS__SW\51__Lambda\CPUFW\21__BIOS\WS\BIOS\Release/../Src/LL/sys_spim.c:333
				sSPIM.task_schedule[ntask++] = ( ((SPIM_NB_PER_TASK - 1)<<4) | TID_RDAT_1IO  );
    12ae:	87ba                	mv	a5,a4
    12b0:	0705                	addi	a4,a4,1
    12b2:	0ff77713          	zext.b	a4,a4
    12b6:	03078793          	addi	a5,a5,48
D:\42__Project__CREOSS__SW\51__Lambda\CPUFW\21__BIOS\WS\BIOS\Release/../Src/LL/sys_spim.c:331
			if ( nbyte_remain >= SPIM_NB_PER_TASK ) {
    12ba:	06defc63          	bgeu	t4,a3,1332 <spim_cmdgen+0x686>
D:\42__Project__CREOSS__SW\51__Lambda\CPUFW\21__BIOS\WS\BIOS\Release/../Src/LL/sys_spim.c:333
				sSPIM.task_schedule[ntask++] = ( ((SPIM_NB_PER_TASK - 1)<<4) | TID_RDAT_1IO  );
    12be:	078a                	slli	a5,a5,0x2
D:\42__Project__CREOSS__SW\51__Lambda\CPUFW\21__BIOS\WS\BIOS\Release/../Src/LL/sys_spim.c:332
				smonl ( st16[1], __LINE__ );
    12c0:	00689123          	sh	t1,2(a7) # 80ff0002 <_ctype_+0xfff1fcaa>
D:\42__Project__CREOSS__SW\51__Lambda\CPUFW\21__BIOS\WS\BIOS\Release/../Src/LL/sys_spim.c:333
				sSPIM.task_schedule[ntask++] = ( ((SPIM_NB_PER_TASK - 1)<<4) | TID_RDAT_1IO  );
    12c4:	97aa                	add	a5,a5,a0
    12c6:	c390                	sw	a2,0(a5)
D:\42__Project__CREOSS__SW\51__Lambda\CPUFW\21__BIOS\WS\BIOS\Release/../Src/LL/sys_spim.c:334
				nbyte_remain -= SPIM_NB_PER_TASK;
    12c8:	80068693          	addi	a3,a3,-2048
D:\42__Project__CREOSS__SW\51__Lambda\CPUFW\21__BIOS\WS\BIOS\Release/../Src/LL/sys_spim.c:331
			if ( nbyte_remain >= SPIM_NB_PER_TASK ) {
    12cc:	b7cd                	j	12ae <spim_cmdgen+0x602>
D:\42__Project__CREOSS__SW\51__Lambda\CPUFW\21__BIOS\WS\BIOS\Release/../Src/LL/sys_spim.c:293
			} else if ( gss.opt_spim_n_rch==OPT_SPIM_RCH2 ) {
    12ce:	4ed4                	lw	a3,28(a3)
    12d0:	4705                	li	a4,1
    12d2:	f8e691e3          	bne	a3,a4,1254 <spim_cmdgen+0x5a8>
D:\42__Project__CREOSS__SW\51__Lambda\CPUFW\21__BIOS\WS\BIOS\Release/../Src/LL/sys_spim.c:294
				smonl ( st16[1], __LINE__ );
    12d6:	12600713          	li	a4,294
    12da:	00e79123          	sh	a4,2(a5)
D:\42__Project__CREOSS__SW\51__Lambda\CPUFW\21__BIOS\WS\BIOS\Release/../Src/LL/sys_spim.c:295
				sDMAC.flow_ctrl = ( sDMAC.flow_ctrl & DMAC_FLOW_CTRL_RCH2_TCH_CLR ) | DMAC_FLOW_CTRL_RCH2_TCH0_EN;
    12de:	81010737          	lui	a4,0x81010
    12e2:	4f1c                	lw	a5,24(a4)
    12e4:	fbb7f793          	andi	a5,a5,-69
    12e8:	0047e793          	ori	a5,a5,4
    12ec:	b79d                	j	1252 <spim_cmdgen+0x5a6>
D:\42__Project__CREOSS__SW\51__Lambda\CPUFW\21__BIOS\WS\BIOS\Release/../Src/LL/sys_spim.c:298
		} else if ( (((uint32_t)(rbuf))&0xFF000000 ) == 0x50000000 ) {	// MB, DMA SRAM, TCH1
    12ee:	50000637          	lui	a2,0x50000
    12f2:	f6c711e3          	bne	a4,a2,1254 <spim_cmdgen+0x5a8>
D:\42__Project__CREOSS__SW\51__Lambda\CPUFW\21__BIOS\WS\BIOS\Release/../Src/LL/sys_spim.c:299
			if ( gss.opt_spim_n_rch==OPT_SPIM_RCH1 ) {
    12f6:	4ed8                	lw	a4,28(a3)
    12f8:	ef09                	bnez	a4,1312 <spim_cmdgen+0x666>
D:\42__Project__CREOSS__SW\51__Lambda\CPUFW\21__BIOS\WS\BIOS\Release/../Src/LL/sys_spim.c:300
				smonl ( st16[1], __LINE__ );
    12fa:	12c00713          	li	a4,300
    12fe:	00e79123          	sh	a4,2(a5)
D:\42__Project__CREOSS__SW\51__Lambda\CPUFW\21__BIOS\WS\BIOS\Release/../Src/LL/sys_spim.c:301
				sDMAC.flow_ctrl = ( sDMAC.flow_ctrl & DMAC_FLOW_CTRL_RCH1_TCH_CLR ) | DMAC_FLOW_CTRL_RCH1_TCH1_EN;
    1302:	81010737          	lui	a4,0x81010
    1306:	4f1c                	lw	a5,24(a4)
    1308:	fdd7f793          	andi	a5,a5,-35
    130c:	0207e793          	ori	a5,a5,32
    1310:	b789                	j	1252 <spim_cmdgen+0x5a6>
D:\42__Project__CREOSS__SW\51__Lambda\CPUFW\21__BIOS\WS\BIOS\Release/../Src/LL/sys_spim.c:302
			} else if ( gss.opt_spim_n_rch==OPT_SPIM_RCH2 ) {
    1312:	4ed4                	lw	a3,28(a3)
    1314:	4705                	li	a4,1
    1316:	f2e69fe3          	bne	a3,a4,1254 <spim_cmdgen+0x5a8>
D:\42__Project__CREOSS__SW\51__Lambda\CPUFW\21__BIOS\WS\BIOS\Release/../Src/LL/sys_spim.c:303
				smonl ( st16[1], __LINE__ );
    131a:	12f00713          	li	a4,303
    131e:	00e79123          	sh	a4,2(a5)
D:\42__Project__CREOSS__SW\51__Lambda\CPUFW\21__BIOS\WS\BIOS\Release/../Src/LL/sys_spim.c:304
				sDMAC.flow_ctrl = ( sDMAC.flow_ctrl & DMAC_FLOW_CTRL_RCH2_TCH_CLR ) | DMAC_FLOW_CTRL_RCH2_TCH1_EN;
    1322:	81010737          	lui	a4,0x81010
    1326:	4f1c                	lw	a5,24(a4)
    1328:	fbb7f793          	andi	a5,a5,-69
    132c:	0407e793          	ori	a5,a5,64
    1330:	b70d                	j	1252 <spim_cmdgen+0x5a6>
D:\42__Project__CREOSS__SW\51__Lambda\CPUFW\21__BIOS\WS\BIOS\Release/../Src/LL/sys_spim.c:336
				smonl ( st16[1], __LINE__ );
    1332:	80ff0637          	lui	a2,0x80ff0
    1336:	15000513          	li	a0,336
    133a:	00a61123          	sh	a0,2(a2) # 80ff0002 <_ctype_+0xfff1fcaa>
    133e:	00b85693          	srli	a3,a6,0xb
D:\42__Project__CREOSS__SW\51__Lambda\CPUFW\21__BIOS\WS\BIOS\Release/../Src/LL/sys_spim.c:337
				sSPIM.task_schedule[ntask++] = ( ((nbyte_remain     - 1)<<4) | TID_RDAT_1IO );
    1342:	80000513          	li	a0,-2048
    1346:	0ff6f713          	zext.b	a4,a3
    134a:	02a686b3          	mul	a3,a3,a0
    134e:	187d                	addi	a6,a6,-1
    1350:	078a                	slli	a5,a5,0x2
D:\42__Project__CREOSS__SW\51__Lambda\CPUFW\21__BIOS\WS\BIOS\Release/../Src/LL/sys_spim.c:342
		sSPIM.task_schedule[ntask++] = ( TID_SSN_REL  |   (0x0<<4) );			// SSN=H, for mis-aligned read (dma_wr)
    1352:	4509                	li	a0,2
D:\42__Project__CREOSS__SW\51__Lambda\CPUFW\21__BIOS\WS\BIOS\Release/../Src/LL/sys_spim.c:337
				sSPIM.task_schedule[ntask++] = ( ((nbyte_remain     - 1)<<4) | TID_RDAT_1IO );
    1354:	9836                	add	a6,a6,a3
    1356:	0812                	slli	a6,a6,0x4
    1358:	810906b7          	lui	a3,0x81090
    135c:	97b6                	add	a5,a5,a3
    135e:	00986813          	ori	a6,a6,9
    1362:	0107a023          	sw	a6,0(a5)
D:\42__Project__CREOSS__SW\51__Lambda\CPUFW\21__BIOS\WS\BIOS\Release/../Src/LL/sys_spim.c:333
				sSPIM.task_schedule[ntask++] = ( ((SPIM_NB_PER_TASK - 1)<<4) | TID_RDAT_1IO  );
    1366:	00270793          	addi	a5,a4,2 # 81010002 <_ctype_+0xfff3fcaa>
D:\42__Project__CREOSS__SW\51__Lambda\CPUFW\21__BIOS\WS\BIOS\Release/../Src/LL/sys_spim.c:342
		sSPIM.task_schedule[ntask++] = ( TID_SSN_REL  |   (0x0<<4) );			// SSN=H, for mis-aligned read (dma_wr)
    136a:	0ff7f793          	zext.b	a5,a5
    136e:	03078793          	addi	a5,a5,48
    1372:	078a                	slli	a5,a5,0x2
    1374:	97b6                	add	a5,a5,a3
    1376:	c388                	sw	a0,0(a5)
    1378:	00370793          	addi	a5,a4,3
D:\42__Project__CREOSS__SW\51__Lambda\CPUFW\21__BIOS\WS\BIOS\Release/../Src/LL/sys_spim.c:343
		sSPIM.task_schedule[ntask++] = ( (0x0<<4 ) | TID_IDLE      );
    137c:	0ff7f793          	zext.b	a5,a5
    1380:	03078793          	addi	a5,a5,48
    1384:	078a                	slli	a5,a5,0x2
    1386:	97b6                	add	a5,a5,a3
    1388:	0007a023          	sw	zero,0(a5)
D:\42__Project__CREOSS__SW\51__Lambda\CPUFW\21__BIOS\WS\BIOS\Release/../Src/LL/sys_spim.c:344
		sSPIM.ctrl_ac = SPIM_CTRL_AC_TASK_TRIG;
    138c:	cac8                	sw	a0,20(a3)
D:\42__Project__CREOSS__SW\51__Lambda\CPUFW\21__BIOS\WS\BIOS\Release/../Src/LL/sys_spim.c:345
		macro_nop_x4 ( );			//
    138e:	0001                	nop
    1390:	0001                	nop
    1392:	0001                	nop
    1394:	0001                	nop
D:\42__Project__CREOSS__SW\51__Lambda\CPUFW\21__BIOS\WS\BIOS\Release/../Src/LL/sys_spim.c:346
		smonl ( st16[1], __LINE__ );
    1396:	15a00793          	li	a5,346
    139a:	00f61123          	sh	a5,2(a2)
D:\42__Project__CREOSS__SW\51__Lambda\CPUFW\21__BIOS\WS\BIOS\Release/../Src/LL/sys_spim.c:348
			if ( sSPIM.st == 0x01 ) {
    139e:	4785                	li	a5,1
    13a0:	46d8                	lw	a4,12(a3)
    13a2:	fef71fe3          	bne	a4,a5,13a0 <spim_cmdgen+0x6f4>
    13a6:	b419                	j	dac <spim_cmdgen+0x100>

Disassembly of section .text.ef_rdid:

000013a8 <ef_rdid>:
ef_rdid():
D:\42__Project__CREOSS__SW\51__Lambda\CPUFW\21__BIOS\WS\BIOS\Release/../Src/LL/sys_spim.c:396
//--------------------------------------------------------------------------------------------------
// 	read ID
//--------------------------------------------------------------------------------------------------
void	__att_noinline__	ef_rdid(uint8_t * rd){

	spim_cmdgen (	
    13a8:	88aa                	mv	a7,a0
    13aa:	4819                	li	a6,6
    13ac:	4781                	li	a5,0
    13ae:	4701                	li	a4,0
    13b0:	4681                	li	a3,0
    13b2:	4601                	li	a2,0
    13b4:	09f00593          	li	a1,159
    13b8:	4505                	li	a0,1
    13ba:	b8cd                	j	cac <spim_cmdgen>

Disassembly of section .text.ef_rdsr:

000013bc <ef_rdsr>:
ef_rdsr():
D:\42__Project__CREOSS__SW\51__Lambda\CPUFW\21__BIOS\WS\BIOS\Release/../Src/LL/sys_spim.c:412
 *  @function	read status register
 */
//--------------------------------------------------------------------------------------------------
void	__att_noinline__	ef_rdsr(uint16_t* rd){

	spim_cmdgen  (	
    13bc:	88aa                	mv	a7,a0
    13be:	4809                	li	a6,2
    13c0:	4781                	li	a5,0
    13c2:	4701                	li	a4,0
    13c4:	4681                	li	a3,0
    13c6:	4601                	li	a2,0
    13c8:	4595                	li	a1,5
    13ca:	4505                	li	a0,1
    13cc:	b0c5                	j	cac <spim_cmdgen>

Disassembly of section .text.ef_wrsr:

000013ce <ef_wrsr>:
ef_wrsr():
D:\42__Project__CREOSS__SW\51__Lambda\CPUFW\21__BIOS\WS\BIOS\Release/../Src/LL/sys_spim.c:425
//--------------------------------------------------------------------------------------------------
/**
 *  @function	write status register
 */
//--------------------------------------------------------------------------------------------------
void	__att_noinline__	ef_wrsr(uint16_t wd){
    13ce:	86aa                	mv	a3,a0
D:\42__Project__CREOSS__SW\51__Lambda\CPUFW\21__BIOS\WS\BIOS\Release/../Src/LL/sys_spim.c:427
	
	spim_cmdgen (	
    13d0:	4881                	li	a7,0
    13d2:	4801                	li	a6,0
    13d4:	4781                	li	a5,0
    13d6:	4701                	li	a4,0
    13d8:	4605                	li	a2,1
    13da:	4585                	li	a1,1
    13dc:	4505                	li	a0,1
    13de:	b0f9                	j	cac <spim_cmdgen>

Disassembly of section .text.ef_wrsr_01H_2B:

000013e0 <ef_wrsr_01H_2B>:
ef_wrsr_01H_2B():
D:\42__Project__CREOSS__SW\51__Lambda\CPUFW\21__BIOS\WS\BIOS\Release/../Src/LL/sys_spim.c:440
//--------------------------------------------------------------------------------------------------
/**
 *  @function	write status register
 */
//--------------------------------------------------------------------------------------------------
void	__att_noinline__	ef_wrsr_01H_2B(uint16_t wd){
    13e0:	86aa                	mv	a3,a0
D:\42__Project__CREOSS__SW\51__Lambda\CPUFW\21__BIOS\WS\BIOS\Release/../Src/LL/sys_spim.c:442
	
	spim_cmdgen (	
    13e2:	4881                	li	a7,0
    13e4:	4801                	li	a6,0
    13e6:	4781                	li	a5,0
    13e8:	4701                	li	a4,0
    13ea:	4609                	li	a2,2
    13ec:	4585                	li	a1,1
    13ee:	4505                	li	a0,1
    13f0:	b875                	j	cac <spim_cmdgen>

Disassembly of section .text.ef_wrsr_31H:

000013f2 <ef_wrsr_31H>:
ef_wrsr_31H():
D:\42__Project__CREOSS__SW\51__Lambda\CPUFW\21__BIOS\WS\BIOS\Release/../Src/LL/sys_spim.c:455
//--------------------------------------------------------------------------------------------------
/**
 *  @function	write status register
 */
//--------------------------------------------------------------------------------------------------
void	__att_noinline__	ef_wrsr_31H (uint16_t wd){
    13f2:	86aa                	mv	a3,a0
D:\42__Project__CREOSS__SW\51__Lambda\CPUFW\21__BIOS\WS\BIOS\Release/../Src/LL/sys_spim.c:457
	
	spim_cmdgen (	
    13f4:	4881                	li	a7,0
    13f6:	4801                	li	a6,0
    13f8:	4781                	li	a5,0
    13fa:	4701                	li	a4,0
    13fc:	4605                	li	a2,1
    13fe:	03100593          	li	a1,49
    1402:	4505                	li	a0,1
    1404:	b065                	j	cac <spim_cmdgen>

Disassembly of section .text.ef_wren:

00001406 <ef_wren>:
ef_wren():
D:\42__Project__CREOSS__SW\51__Lambda\CPUFW\21__BIOS\WS\BIOS\Release/../Src/LL/sys_spim.c:473
 *  @function	write enable
 */
//--------------------------------------------------------------------------------------------------
void	__att_noinline__	ef_wren(){

	spim_cmdgen (	
    1406:	4881                	li	a7,0
    1408:	4801                	li	a6,0
    140a:	4781                	li	a5,0
    140c:	4701                	li	a4,0
    140e:	4681                	li	a3,0
    1410:	4601                	li	a2,0
    1412:	4599                	li	a1,6
    1414:	4505                	li	a0,1
    1416:	b859                	j	cac <spim_cmdgen>

Disassembly of section .text.ef_wait_ready:

00001418 <ef_wait_ready>:
ef_wait_ready():
D:\42__Project__CREOSS__SW\51__Lambda\CPUFW\21__BIOS\WS\BIOS\Release/../Src/LL/sys_spim.c:491
//--------------------------------------------------------------------------------------------------
void	__att_noinline__	ef_wait_ready    ( ) {

	// spim_wait_ready ( );

}
    1418:	8082                	ret

Disassembly of section .text.ef_chip_erase:

0000141a <ef_chip_erase>:
ef_chip_erase():
D:\42__Project__CREOSS__SW\51__Lambda\CPUFW\21__BIOS\WS\BIOS\Release/../Src/LL/sys_spim.c:501
 *  @desc	Chip Erase : 0x60 or 0xC7	
 */
//--------------------------------------------------------------------------------------------------
void	__att_noinline__	ef_chip_erase(){

	spim_cmdgen(	
    141a:	4881                	li	a7,0
    141c:	4801                	li	a6,0
    141e:	4781                	li	a5,0
    1420:	4701                	li	a4,0
    1422:	4681                	li	a3,0
    1424:	4601                	li	a2,0
    1426:	06000593          	li	a1,96
    142a:	4505                	li	a0,1
    142c:	b041                	j	cac <spim_cmdgen>

Disassembly of section .text.ef_sector_erase:

0000142e <ef_sector_erase>:
ef_sector_erase():
D:\42__Project__CREOSS__SW\51__Lambda\CPUFW\21__BIOS\WS\BIOS\Release/../Src/LL/sys_spim.c:517
/**
 *  @function	sector erase
 *  @desc	Block Erase : 0x20
 */
//--------------------------------------------------------------------------------------------------
void	__att_noinline__	ef_sector_erase(uint32_t ef_add){
    142e:	86aa                	mv	a3,a0
D:\42__Project__CREOSS__SW\51__Lambda\CPUFW\21__BIOS\WS\BIOS\Release/../Src/LL/sys_spim.c:519

	spim_cmdgen(	
    1430:	4881                	li	a7,0
    1432:	4801                	li	a6,0
    1434:	4781                	li	a5,0
    1436:	4701                	li	a4,0
    1438:	460d                	li	a2,3
    143a:	02000593          	li	a1,32
    143e:	4505                	li	a0,1
    1440:	b0b5                	j	cac <spim_cmdgen>

Disassembly of section .text.ef_page_program:

00001442 <ef_page_program>:
ef_page_program():
D:\42__Project__CREOSS__SW\51__Lambda\CPUFW\21__BIOS\WS\BIOS\Release/../Src/LL/sys_spim.c:531
//--------------------------------------------------------------------------------------------------
/**
 *  @function	program page
 */
//--------------------------------------------------------------------------------------------------
void	__att_noinline__	ef_page_program (uint32_t ef_add, uint32_t nbyte, uint8_t* buf8 ) {
    1442:	86aa                	mv	a3,a0
    1444:	872e                	mv	a4,a1
    1446:	87b2                	mv	a5,a2
D:\42__Project__CREOSS__SW\51__Lambda\CPUFW\21__BIOS\WS\BIOS\Release/../Src/LL/sys_spim.c:533

	spim_cmdgen(	
    1448:	4881                	li	a7,0
    144a:	4801                	li	a6,0
    144c:	460d                	li	a2,3
    144e:	4589                	li	a1,2
    1450:	4505                	li	a0,1
    1452:	b8a9                	j	cac <spim_cmdgen>

Disassembly of section .text.ef_read:

00001454 <ef_read>:
ef_read():
D:\42__Project__CREOSS__SW\51__Lambda\CPUFW\21__BIOS\WS\BIOS\Release/../Src/LL/sys_spim.c:545
}

//--------------------------------------------------------------------------------------------------
//	void	__att_noinline__	ef_read (uint32_t ef_add, uint8_t* buf8, uint32_t nbyte){
//--------------------------------------------------------------------------------------------------
void	__att_noinline__	ef_read (uint32_t ef_add, uint32_t nbyte, uint8_t* buf8){
    1454:	86aa                	mv	a3,a0
D:\42__Project__CREOSS__SW\51__Lambda\CPUFW\21__BIOS\WS\BIOS\Release/../Src/LL/sys_spim.c:569
	//		);
	//

	//} else {
		// READ : 1MISO
		spim_cmdgen(	
    1456:	88b2                	mv	a7,a2
    1458:	882e                	mv	a6,a1
    145a:	4781                	li	a5,0
    145c:	4701                	li	a4,0
    145e:	460d                	li	a2,3
    1460:	458d                	li	a1,3
    1462:	4505                	li	a0,1
    1464:	b0a1                	j	cac <spim_cmdgen>

Disassembly of section .text.ef_chk_ff:

00001466 <ef_chk_ff>:
ef_chk_ff():
D:\42__Project__CREOSS__SW\51__Lambda\CPUFW\21__BIOS\WS\BIOS\Release/../Src/LL/sys_spim.c:585
//--------------------------------------------------------------------------------------------------
/**
 *  @function	program page
 */
//--------------------------------------------------------------------------------------------------
void	__att_noinline__	ef_chk_ff (uint32_t ef_add, uint32_t nbyte, uint8_t* buf8 ) {
    1466:	1141                	addi	sp,sp,-16
    1468:	c422                	sw	s0,8(sp)
    146a:	c226                	sw	s1,4(sp)
    146c:	8432                	mv	s0,a2
    146e:	84ae                	mv	s1,a1
    1470:	c606                	sw	ra,12(sp)
D:\42__Project__CREOSS__SW\51__Lambda\CPUFW\21__BIOS\WS\BIOS\Release/../Src/LL/sys_spim.c:590

	uint16_t	n, nerr;
	uint32_t *	rbuf32 = (uint32_t *) buf8;

	ef_read          ( ef_add,  nbyte, buf8  );
    1472:	37cd                	jal	1454 <ef_read>
D:\42__Project__CREOSS__SW\51__Lambda\CPUFW\21__BIOS\WS\BIOS\Release/../Src/LL/sys_spim.c:593

	nerr = 0;
	for ( n=0; n<nbyte/4; n++){
    1474:	8089                	srli	s1,s1,0x2
D:\42__Project__CREOSS__SW\51__Lambda\CPUFW\21__BIOS\WS\BIOS\Release/../Src/LL/sys_spim.c:592
	nerr = 0;
    1476:	4701                	li	a4,0
D:\42__Project__CREOSS__SW\51__Lambda\CPUFW\21__BIOS\WS\BIOS\Release/../Src/LL/sys_spim.c:593
	for ( n=0; n<nbyte/4; n++){
    1478:	4781                	li	a5,0
D:\42__Project__CREOSS__SW\51__Lambda\CPUFW\21__BIOS\WS\BIOS\Release/../Src/LL/sys_spim.c:594
		if ( rbuf32[n]!= 0xFFFFFFFF ) {
    147a:	567d                	li	a2,-1
D:\42__Project__CREOSS__SW\51__Lambda\CPUFW\21__BIOS\WS\BIOS\Release/../Src/LL/sys_spim.c:593 (discriminator 1)
	for ( n=0; n<nbyte/4; n++){
    147c:	0097ec63          	bltu	a5,s1,1494 <ef_chk_ff+0x2e>
D:\42__Project__CREOSS__SW\51__Lambda\CPUFW\21__BIOS\WS\BIOS\Release/../Src/LL/sys_spim.c:599
			nerr ++;
		}
	}

	rbuf32[0] = 0xCCFF;
    1480:	67b5                	lui	a5,0xd
    1482:	cff78793          	addi	a5,a5,-769 # ccff <strnlen+0xa66b>
D:\42__Project__CREOSS__SW\51__Lambda\CPUFW\21__BIOS\WS\BIOS\Release/../Src/LL/sys_spim.c:602
	rbuf32[1] = nerr;

}
    1486:	40b2                	lw	ra,12(sp)
D:\42__Project__CREOSS__SW\51__Lambda\CPUFW\21__BIOS\WS\BIOS\Release/../Src/LL/sys_spim.c:599
	rbuf32[0] = 0xCCFF;
    1488:	c01c                	sw	a5,0(s0)
D:\42__Project__CREOSS__SW\51__Lambda\CPUFW\21__BIOS\WS\BIOS\Release/../Src/LL/sys_spim.c:600
	rbuf32[1] = nerr;
    148a:	c058                	sw	a4,4(s0)
D:\42__Project__CREOSS__SW\51__Lambda\CPUFW\21__BIOS\WS\BIOS\Release/../Src/LL/sys_spim.c:602
}
    148c:	4422                	lw	s0,8(sp)
    148e:	4492                	lw	s1,4(sp)
    1490:	0141                	addi	sp,sp,16
    1492:	8082                	ret
D:\42__Project__CREOSS__SW\51__Lambda\CPUFW\21__BIOS\WS\BIOS\Release/../Src/LL/sys_spim.c:594
		if ( rbuf32[n]!= 0xFFFFFFFF ) {
    1494:	00279693          	slli	a3,a5,0x2
    1498:	96a2                	add	a3,a3,s0
    149a:	4294                	lw	a3,0(a3)
    149c:	00c68563          	beq	a3,a2,14a6 <ef_chk_ff+0x40>
D:\42__Project__CREOSS__SW\51__Lambda\CPUFW\21__BIOS\WS\BIOS\Release/../Src/LL/sys_spim.c:595
			nerr ++;
    14a0:	0705                	addi	a4,a4,1
    14a2:	0742                	slli	a4,a4,0x10
    14a4:	8341                	srli	a4,a4,0x10
D:\42__Project__CREOSS__SW\51__Lambda\CPUFW\21__BIOS\WS\BIOS\Release/../Src/LL/sys_spim.c:593 (discriminator 2)
	for ( n=0; n<nbyte/4; n++){
    14a6:	0785                	addi	a5,a5,1
    14a8:	07c2                	slli	a5,a5,0x10
    14aa:	83c1                	srli	a5,a5,0x10
    14ac:	bfc1                	j	147c <ef_chk_ff+0x16>

Disassembly of section .text._trap_handler_exc:

000014ae <_trap_handler_exc>:
_trap_handler_exc():
D:\42__Project__CREOSS__SW\51__Lambda\CPUFW\21__BIOS\WS\BIOS\Release/../Src/CRT0_LD_TRAP_CSR/TRAP/crs32v_trap_handler_exc.c:32

#include	<global_include.h>

// exception handler
void	_trap_handler_exc()
{
    14ae:	7179                	addi	sp,sp,-48
    14b0:	d606                	sw	ra,44(sp)
    14b2:	d422                	sw	s0,40(sp)
    14b4:	d226                	sw	s1,36(sp)
    14b6:	d04a                	sw	s2,32(sp)
    14b8:	ce4e                	sw	s3,28(sp)
    14ba:	cc52                	sw	s4,24(sp)
    14bc:	ca56                	sw	s5,20(sp)
    14be:	c85a                	sw	s6,16(sp)
    14c0:	c65e                	sw	s7,12(sp)
D:\42__Project__CREOSS__SW\51__Lambda\CPUFW\21__BIOS\WS\BIOS\Release/../Src/CRT0_LD_TRAP_CSR/TRAP/crs32v_trap_handler_exc.c:41
	unsigned int	exc_mcause_buf;
	unsigned int	exc_mtsf_buf;
	unsigned int	unlimited_loop = 0;

	// push CSR.mepc
	exc_mepc_buf = csr_read(mepc);		// push for nested exception
    14c2:	34102a73          	csrr	s4,mepc
D:\42__Project__CREOSS__SW\51__Lambda\CPUFW\21__BIOS\WS\BIOS\Release/../Src/CRT0_LD_TRAP_CSR/TRAP/crs32v_trap_handler_exc.c:44

	// read CSR.mcause
	exc_mcause_buf = csr_read(mcause);
    14c6:	342027f3          	csrr	a5,mcause
D:\42__Project__CREOSS__SW\51__Lambda\CPUFW\21__BIOS\WS\BIOS\Release/../Src/CRT0_LD_TRAP_CSR/TRAP/crs32v_trap_handler_exc.c:47

	// read CSR.mtsf
	exc_mtsf_buf = csr_read(0xbd8);
    14ca:	bd802973          	csrr	s2,0xbd8
D:\42__Project__CREOSS__SW\51__Lambda\CPUFW\21__BIOS\WS\BIOS\Release/../Src/CRT0_LD_TRAP_CSR/TRAP/crs32v_trap_handler_exc.c:50

	// parsing
	if (exc_mcause_buf==EXC_CAUSE_ILLEGAL_INSN) {
    14ce:	4709                	li	a4,2
    14d0:	810d04b7          	lui	s1,0x810d0
    14d4:	02e79963          	bne	a5,a4,1506 <_trap_handler_exc+0x58>
D:\42__Project__CREOSS__SW\51__Lambda\CPUFW\21__BIOS\WS\BIOS\Release/../Src/CRT0_LD_TRAP_CSR/TRAP/crs32v_trap_handler_exc.c:51
		print_str("Illegal instruction detected!!!\n");
    14d8:	810d0537          	lui	a0,0x810d0
    14dc:	0cc50513          	addi	a0,a0,204 # 810d00cc <_ctype_+0xfffffd74>
    14e0:	f8ffe0ef          	jal	ra,46e <print_str>
D:\42__Project__CREOSS__SW\51__Lambda\CPUFW\21__BIOS\WS\BIOS\Release/../Src/CRT0_LD_TRAP_CSR/TRAP/crs32v_trap_handler_exc.c:52
		print_str("\tINSTRUCTION = ");	print_hex(csr_read(mtval), 8);	print_str("\n");	// instruction value
    14e4:	810d0537          	lui	a0,0x810d0
    14e8:	0f050513          	addi	a0,a0,240 # 810d00f0 <_ctype_+0xfffffd98>
    14ec:	f83fe0ef          	jal	ra,46e <print_str>
    14f0:	34302573          	csrr	a0,mtval
    14f4:	45a1                	li	a1,8
    14f6:	fd5fe0ef          	jal	ra,4ca <print_hex>
    14fa:	22048513          	addi	a0,s1,544 # 810d0220 <_ctype_+0xfffffec8>
D:\42__Project__CREOSS__SW\51__Lambda\CPUFW\21__BIOS\WS\BIOS\Release/../Src/CRT0_LD_TRAP_CSR/TRAP/crs32v_trap_handler_exc.c:87
		print_str("Stack corrupted!!!\n");
		// TODO : need to print the accessed address
		unlimited_loop = 1;
	}
	else if (exc_mcause_buf==EXC_CAUSE_DIV_BY_ZERO) {
		print_str("DIVIDE_BY_ZERO detected!!!\n");
    14fe:	f71fe0ef          	jal	ra,46e <print_str>
D:\42__Project__CREOSS__SW\51__Lambda\CPUFW\21__BIOS\WS\BIOS\Release/../Src/CRT0_LD_TRAP_CSR/TRAP/crs32v_trap_handler_exc.c:88
		unlimited_loop = 1;
    1502:	4405                	li	s0,1
    1504:	a82d                	j	153e <_trap_handler_exc+0x90>
D:\42__Project__CREOSS__SW\51__Lambda\CPUFW\21__BIOS\WS\BIOS\Release/../Src/CRT0_LD_TRAP_CSR/TRAP/crs32v_trap_handler_exc.c:55
	else if (exc_mcause_buf==EXC_CAUSE_BREAKPOINT) {
    1506:	470d                	li	a4,3
    1508:	0ce79563          	bne	a5,a4,15d2 <_trap_handler_exc+0x124>
D:\42__Project__CREOSS__SW\51__Lambda\CPUFW\21__BIOS\WS\BIOS\Release/../Src/CRT0_LD_TRAP_CSR/TRAP/crs32v_trap_handler_exc.c:56
		print_str("EBREAK instruction detected!!!\n");
    150c:	810d0537          	lui	a0,0x810d0
    1510:	10050513          	addi	a0,a0,256 # 810d0100 <_ctype_+0xfffffda8>
D:\42__Project__CREOSS__SW\51__Lambda\CPUFW\21__BIOS\WS\BIOS\Release/../Src/CRT0_LD_TRAP_CSR/TRAP/crs32v_trap_handler_exc.c:64
		print_str("ECALL instruction detected!!!\n");
    1514:	f5bfe0ef          	jal	ra,46e <print_str>
D:\42__Project__CREOSS__SW\51__Lambda\CPUFW\21__BIOS\WS\BIOS\Release/../Src/CRT0_LD_TRAP_CSR/TRAP/crs32v_trap_handler_exc.c:65
		print_str("\tUser should program crs32v_trap_handler_exc.c!!!\n");
    1518:	810d0537          	lui	a0,0x810d0
    151c:	12050513          	addi	a0,a0,288 # 810d0120 <_ctype_+0xfffffdc8>
    1520:	f4ffe0ef          	jal	ra,46e <print_str>
D:\42__Project__CREOSS__SW\51__Lambda\CPUFW\21__BIOS\WS\BIOS\Release/../Src/CRT0_LD_TRAP_CSR/TRAP/crs32v_trap_handler_exc.c:66
		print_str("\tbefore using ECALL/EBREAK, CSR.mepc should be pushed by user!!!\n");
    1524:	810d0537          	lui	a0,0x810d0
    1528:	15450513          	addi	a0,a0,340 # 810d0154 <_ctype_+0xfffffdfc>
    152c:	f43fe0ef          	jal	ra,46e <print_str>
D:\42__Project__CREOSS__SW\51__Lambda\CPUFW\21__BIOS\WS\BIOS\Release/../Src/CRT0_LD_TRAP_CSR/TRAP/crs32v_trap_handler_exc.c:67
		print_str("\tafter return, pushed CSR.mepc should be popped by user!!!\n");
    1530:	810d0537          	lui	a0,0x810d0
    1534:	19850513          	addi	a0,a0,408 # 810d0198 <_ctype_+0xfffffe40>
    1538:	f37fe0ef          	jal	ra,46e <print_str>
D:\42__Project__CREOSS__SW\51__Lambda\CPUFW\21__BIOS\WS\BIOS\Release/../Src/CRT0_LD_TRAP_CSR/TRAP/crs32v_trap_handler_exc.c:69
		unlimited_loop = 0;
    153c:	4401                	li	s0,0
D:\42__Project__CREOSS__SW\51__Lambda\CPUFW\21__BIOS\WS\BIOS\Release/../Src/CRT0_LD_TRAP_CSR/TRAP/crs32v_trap_handler_exc.c:92
	}

	// exception information display
	print_str("\tMEPC      = ");	print_hex(exc_mepc_buf, 8);		print_str("\n");
    153e:	810d0537          	lui	a0,0x810d0
    1542:	25450513          	addi	a0,a0,596 # 810d0254 <_ctype_+0xfffffefc>
    1546:	f29fe0ef          	jal	ra,46e <print_str>
    154a:	45a1                	li	a1,8
    154c:	8552                	mv	a0,s4
    154e:	f7dfe0ef          	jal	ra,4ca <print_hex>
    1552:	22048513          	addi	a0,s1,544
    1556:	f19fe0ef          	jal	ra,46e <print_str>
D:\42__Project__CREOSS__SW\51__Lambda\CPUFW\21__BIOS\WS\BIOS\Release/../Src/CRT0_LD_TRAP_CSR/TRAP/crs32v_trap_handler_exc.c:93
	print_str("\tMTSF      = ");	print_hex(exc_mtsf_buf, 8);		print_str("\n");
    155a:	810d0537          	lui	a0,0x810d0
    155e:	26450513          	addi	a0,a0,612 # 810d0264 <_ctype_+0xffffff0c>
    1562:	f0dfe0ef          	jal	ra,46e <print_str>
    1566:	854a                	mv	a0,s2
    1568:	45a1                	li	a1,8
    156a:	f61fe0ef          	jal	ra,4ca <print_hex>
    156e:	22048513          	addi	a0,s1,544
    1572:	efdfe0ef          	jal	ra,46e <print_str>
D:\42__Project__CREOSS__SW\51__Lambda\CPUFW\21__BIOS\WS\BIOS\Release/../Src/CRT0_LD_TRAP_CSR/TRAP/crs32v_trap_handler_exc.c:99

	// unlimited loop
	led_dir = 1;
	led_data = 0x0001;

	if (unlimited_loop){
    1576:	c415                	beqz	s0,15a2 <_trap_handler_exc+0xf4>
D:\42__Project__CREOSS__SW\51__Lambda\CPUFW\21__BIOS\WS\BIOS\Release/../Src/CRT0_LD_TRAP_CSR/TRAP/crs32v_trap_handler_exc.c:100
		print_str("\tMSCARTCH  = ");	print_hex(csr_read(mscratch), 8);		print_str("\n");
    1578:	810d0537          	lui	a0,0x810d0
    157c:	27450513          	addi	a0,a0,628 # 810d0274 <_ctype_+0xffffff1c>
    1580:	eeffe0ef          	jal	ra,46e <print_str>
    1584:	34002573          	csrr	a0,mscratch
    1588:	45a1                	li	a1,8
    158a:	f41fe0ef          	jal	ra,4ca <print_hex>
    158e:	22048513          	addi	a0,s1,544
    1592:	eddfe0ef          	jal	ra,46e <print_str>
D:\42__Project__CREOSS__SW\51__Lambda\CPUFW\21__BIOS\WS\BIOS\Release/../Src/CRT0_LD_TRAP_CSR/TRAP/crs32v_trap_handler_exc.c:101
		print_str("CPU shall stop here!!!\n");
    1596:	810d0537          	lui	a0,0x810d0
    159a:	28450513          	addi	a0,a0,644 # 810d0284 <_ctype_+0xffffff2c>
    159e:	ed1fe0ef          	jal	ra,46e <print_str>
D:\42__Project__CREOSS__SW\51__Lambda\CPUFW\21__BIOS\WS\BIOS\Release/../Src/CRT0_LD_TRAP_CSR/TRAP/crs32v_trap_handler_exc.c:122
			led_data = 0xffff8000;
			led_dir = 0;
		}

		set_mem(LAMBDA_SPB_GPIO_GPO_A, ~led_data);
		basic_delay(600000);
    15a2:	000929b7          	lui	s3,0x92
D:\42__Project__CREOSS__SW\51__Lambda\CPUFW\21__BIOS\WS\BIOS\Release/../Src/CRT0_LD_TRAP_CSR/TRAP/crs32v_trap_handler_exc.c:118
			led_dir = 0;
    15a6:	4485                	li	s1,1
    15a8:	4905                	li	s2,1
D:\42__Project__CREOSS__SW\51__Lambda\CPUFW\21__BIOS\WS\BIOS\Release/../Src/CRT0_LD_TRAP_CSR/TRAP/crs32v_trap_handler_exc.c:106
		if (led_dir==1){
    15aa:	4a85                	li	s5,1
D:\42__Project__CREOSS__SW\51__Lambda\CPUFW\21__BIOS\WS\BIOS\Release/../Src/CRT0_LD_TRAP_CSR/TRAP/crs32v_trap_handler_exc.c:116
		else if (led_data==0x8000){
    15ac:	6b21                	lui	s6,0x8
D:\42__Project__CREOSS__SW\51__Lambda\CPUFW\21__BIOS\WS\BIOS\Release/../Src/CRT0_LD_TRAP_CSR/TRAP/crs32v_trap_handler_exc.c:121
		set_mem(LAMBDA_SPB_GPIO_GPO_A, ~led_data);
    15ae:	80300bb7          	lui	s7,0x80300
D:\42__Project__CREOSS__SW\51__Lambda\CPUFW\21__BIOS\WS\BIOS\Release/../Src/CRT0_LD_TRAP_CSR/TRAP/crs32v_trap_handler_exc.c:122
		basic_delay(600000);
    15b2:	7c098993          	addi	s3,s3,1984 # 927c0 <strnlen+0x9012c>
D:\42__Project__CREOSS__SW\51__Lambda\CPUFW\21__BIOS\WS\BIOS\Release/../Src/CRT0_LD_TRAP_CSR/TRAP/crs32v_trap_handler_exc.c:104
	while(unlimited_loop)
    15b6:	e43d                	bnez	s0,1624 <_trap_handler_exc+0x176>
D:\42__Project__CREOSS__SW\51__Lambda\CPUFW\21__BIOS\WS\BIOS\Release/../Src/CRT0_LD_TRAP_CSR/TRAP/crs32v_trap_handler_exc.c:126
	}

	// pop CSR.mepc
	csr_write(mepc, exc_mepc_buf);
    15b8:	341a1073          	csrw	mepc,s4
D:\42__Project__CREOSS__SW\51__Lambda\CPUFW\21__BIOS\WS\BIOS\Release/../Src/CRT0_LD_TRAP_CSR/TRAP/crs32v_trap_handler_exc.c:127
}
    15bc:	50b2                	lw	ra,44(sp)
    15be:	5422                	lw	s0,40(sp)
    15c0:	5492                	lw	s1,36(sp)
    15c2:	5902                	lw	s2,32(sp)
    15c4:	49f2                	lw	s3,28(sp)
    15c6:	4a62                	lw	s4,24(sp)
    15c8:	4ad2                	lw	s5,20(sp)
    15ca:	4b42                	lw	s6,16(sp)
    15cc:	4bb2                	lw	s7,12(sp)
    15ce:	6145                	addi	sp,sp,48
    15d0:	8082                	ret
D:\42__Project__CREOSS__SW\51__Lambda\CPUFW\21__BIOS\WS\BIOS\Release/../Src/CRT0_LD_TRAP_CSR/TRAP/crs32v_trap_handler_exc.c:63
	else if (exc_mcause_buf==EXC_CAUSE_ECALL_MMODE) {
    15d2:	472d                	li	a4,11
    15d4:	00e79763          	bne	a5,a4,15e2 <_trap_handler_exc+0x134>
D:\42__Project__CREOSS__SW\51__Lambda\CPUFW\21__BIOS\WS\BIOS\Release/../Src/CRT0_LD_TRAP_CSR/TRAP/crs32v_trap_handler_exc.c:64
		print_str("ECALL instruction detected!!!\n");
    15d8:	810d0537          	lui	a0,0x810d0
    15dc:	1d450513          	addi	a0,a0,468 # 810d01d4 <_ctype_+0xfffffe7c>
    15e0:	bf15                	j	1514 <_trap_handler_exc+0x66>
D:\42__Project__CREOSS__SW\51__Lambda\CPUFW\21__BIOS\WS\BIOS\Release/../Src/CRT0_LD_TRAP_CSR/TRAP/crs32v_trap_handler_exc.c:71
	else if (exc_mcause_buf==EXC_CAUSE_SP_OV_FLOW) {
    15e2:	4761                	li	a4,24
    15e4:	00e79763          	bne	a5,a4,15f2 <_trap_handler_exc+0x144>
D:\42__Project__CREOSS__SW\51__Lambda\CPUFW\21__BIOS\WS\BIOS\Release/../Src/CRT0_LD_TRAP_CSR/TRAP/crs32v_trap_handler_exc.c:72
		print_str("Stack overflowed!!!\n");
    15e8:	810d0537          	lui	a0,0x810d0
    15ec:	1f450513          	addi	a0,a0,500 # 810d01f4 <_ctype_+0xfffffe9c>
    15f0:	b739                	j	14fe <_trap_handler_exc+0x50>
D:\42__Project__CREOSS__SW\51__Lambda\CPUFW\21__BIOS\WS\BIOS\Release/../Src/CRT0_LD_TRAP_CSR/TRAP/crs32v_trap_handler_exc.c:76
	else if (exc_mcause_buf==EXC_CAUSE_SP_UD_FLOW) {
    15f2:	4765                	li	a4,25
    15f4:	00e79763          	bne	a5,a4,1602 <_trap_handler_exc+0x154>
D:\42__Project__CREOSS__SW\51__Lambda\CPUFW\21__BIOS\WS\BIOS\Release/../Src/CRT0_LD_TRAP_CSR/TRAP/crs32v_trap_handler_exc.c:77
		print_str("Stack underflowed!!!\n");
    15f8:	810d0537          	lui	a0,0x810d0
    15fc:	20c50513          	addi	a0,a0,524 # 810d020c <_ctype_+0xfffffeb4>
    1600:	bdfd                	j	14fe <_trap_handler_exc+0x50>
D:\42__Project__CREOSS__SW\51__Lambda\CPUFW\21__BIOS\WS\BIOS\Release/../Src/CRT0_LD_TRAP_CSR/TRAP/crs32v_trap_handler_exc.c:81
	else if (exc_mcause_buf==EXC_CAUSE_SP_CORRUPT) {
    1602:	4769                	li	a4,26
    1604:	00e79763          	bne	a5,a4,1612 <_trap_handler_exc+0x164>
D:\42__Project__CREOSS__SW\51__Lambda\CPUFW\21__BIOS\WS\BIOS\Release/../Src/CRT0_LD_TRAP_CSR/TRAP/crs32v_trap_handler_exc.c:82
		print_str("Stack corrupted!!!\n");
    1608:	810d0537          	lui	a0,0x810d0
    160c:	22450513          	addi	a0,a0,548 # 810d0224 <_ctype_+0xfffffecc>
    1610:	b5fd                	j	14fe <_trap_handler_exc+0x50>
D:\42__Project__CREOSS__SW\51__Lambda\CPUFW\21__BIOS\WS\BIOS\Release/../Src/CRT0_LD_TRAP_CSR/TRAP/crs32v_trap_handler_exc.c:86
	else if (exc_mcause_buf==EXC_CAUSE_DIV_BY_ZERO) {
    1612:	476d                	li	a4,27
D:\42__Project__CREOSS__SW\51__Lambda\CPUFW\21__BIOS\WS\BIOS\Release/../Src/CRT0_LD_TRAP_CSR/TRAP/crs32v_trap_handler_exc.c:38
	unsigned int	unlimited_loop = 0;
    1614:	4401                	li	s0,0
D:\42__Project__CREOSS__SW\51__Lambda\CPUFW\21__BIOS\WS\BIOS\Release/../Src/CRT0_LD_TRAP_CSR/TRAP/crs32v_trap_handler_exc.c:86
	else if (exc_mcause_buf==EXC_CAUSE_DIV_BY_ZERO) {
    1616:	f2e794e3          	bne	a5,a4,153e <_trap_handler_exc+0x90>
D:\42__Project__CREOSS__SW\51__Lambda\CPUFW\21__BIOS\WS\BIOS\Release/../Src/CRT0_LD_TRAP_CSR/TRAP/crs32v_trap_handler_exc.c:87
		print_str("DIVIDE_BY_ZERO detected!!!\n");
    161a:	810d0537          	lui	a0,0x810d0
    161e:	23850513          	addi	a0,a0,568 # 810d0238 <_ctype_+0xfffffee0>
    1622:	bdf1                	j	14fe <_trap_handler_exc+0x50>
D:\42__Project__CREOSS__SW\51__Lambda\CPUFW\21__BIOS\WS\BIOS\Release/../Src/CRT0_LD_TRAP_CSR/TRAP/crs32v_trap_handler_exc.c:106
		if (led_dir==1){
    1624:	01591f63          	bne	s2,s5,1642 <_trap_handler_exc+0x194>
D:\42__Project__CREOSS__SW\51__Lambda\CPUFW\21__BIOS\WS\BIOS\Release/../Src/CRT0_LD_TRAP_CSR/TRAP/crs32v_trap_handler_exc.c:107
			led_data = led_data << 1;
    1628:	0486                	slli	s1,s1,0x1
D:\42__Project__CREOSS__SW\51__Lambda\CPUFW\21__BIOS\WS\BIOS\Release/../Src/CRT0_LD_TRAP_CSR/TRAP/crs32v_trap_handler_exc.c:116
		else if (led_data==0x8000){
    162a:	01649463          	bne	s1,s6,1632 <_trap_handler_exc+0x184>
D:\42__Project__CREOSS__SW\51__Lambda\CPUFW\21__BIOS\WS\BIOS\Release/../Src/CRT0_LD_TRAP_CSR/TRAP/crs32v_trap_handler_exc.c:117
			led_data = 0xffff8000;
    162e:	74e1                	lui	s1,0xffff8
D:\42__Project__CREOSS__SW\51__Lambda\CPUFW\21__BIOS\WS\BIOS\Release/../Src/CRT0_LD_TRAP_CSR/TRAP/crs32v_trap_handler_exc.c:118
			led_dir = 0;
    1630:	4901                	li	s2,0
D:\42__Project__CREOSS__SW\51__Lambda\CPUFW\21__BIOS\WS\BIOS\Release/../Src/CRT0_LD_TRAP_CSR/TRAP/crs32v_trap_handler_exc.c:121
		set_mem(LAMBDA_SPB_GPIO_GPO_A, ~led_data);
    1632:	fff4c793          	not	a5,s1
    1636:	08fba023          	sw	a5,128(s7) # 80300080 <_ctype_+0xff22fd28>
D:\42__Project__CREOSS__SW\51__Lambda\CPUFW\21__BIOS\WS\BIOS\Release/../Src/CRT0_LD_TRAP_CSR/TRAP/crs32v_trap_handler_exc.c:122
		basic_delay(600000);
    163a:	854e                	mv	a0,s3
    163c:	ecbfe0ef          	jal	ra,506 <basic_delay>
    1640:	bf9d                	j	15b6 <_trap_handler_exc+0x108>
D:\42__Project__CREOSS__SW\51__Lambda\CPUFW\21__BIOS\WS\BIOS\Release/../Src/CRT0_LD_TRAP_CSR/TRAP/crs32v_trap_handler_exc.c:110
			led_data = led_data >> 1;
    1642:	8085                	srli	s1,s1,0x1
D:\42__Project__CREOSS__SW\51__Lambda\CPUFW\21__BIOS\WS\BIOS\Release/../Src/CRT0_LD_TRAP_CSR/TRAP/crs32v_trap_handler_exc.c:113
		if (led_data==0x0001){
    1644:	ff5493e3          	bne	s1,s5,162a <_trap_handler_exc+0x17c>
D:\42__Project__CREOSS__SW\51__Lambda\CPUFW\21__BIOS\WS\BIOS\Release/../Src/CRT0_LD_TRAP_CSR/TRAP/crs32v_trap_handler_exc.c:114
			led_dir = 1;
    1648:	4905                	li	s2,1
    164a:	b7e5                	j	1632 <_trap_handler_exc+0x184>

Disassembly of section .text._trap_handler_msi:

0000164c <_trap_handler_msi>:
_trap_handler_msi():
D:\42__Project__CREOSS__SW\51__Lambda\CPUFW\21__BIOS\WS\BIOS\Release/../Src/CRT0_LD_TRAP_CSR/TRAP/crs32v_trap_handler_irq.c:13



#include	<global_include.h>

void	_trap_handler_msi()	{
    164c:	1141                	addi	sp,sp,-16
    164e:	c606                	sw	ra,12(sp)
    1650:	c422                	sw	s0,8(sp)
D:\42__Project__CREOSS__SW\51__Lambda\CPUFW\21__BIOS\WS\BIOS\Release/../Src/CRT0_LD_TRAP_CSR/TRAP/crs32v_trap_handler_irq.c:14
	unsigned int	_trap_mepc_keep_buf = csr_read(mepc);	// push for nested exception
    1652:	34102473          	csrr	s0,mepc
D:\42__Project__CREOSS__SW\51__Lambda\CPUFW\21__BIOS\WS\BIOS\Release/../Src/CRT0_LD_TRAP_CSR/TRAP/crs32v_trap_handler_irq.c:15
	crs32v_trap_msi();
    1656:	38b000ef          	jal	ra,21e0 <crs32v_trap_msi>
D:\42__Project__CREOSS__SW\51__Lambda\CPUFW\21__BIOS\WS\BIOS\Release/../Src/CRT0_LD_TRAP_CSR/TRAP/crs32v_trap_handler_irq.c:16
	csr_write(mepc, _trap_mepc_keep_buf);
    165a:	34141073          	csrw	mepc,s0
D:\42__Project__CREOSS__SW\51__Lambda\CPUFW\21__BIOS\WS\BIOS\Release/../Src/CRT0_LD_TRAP_CSR/TRAP/crs32v_trap_handler_irq.c:17
}
    165e:	40b2                	lw	ra,12(sp)
    1660:	4422                	lw	s0,8(sp)
    1662:	0141                	addi	sp,sp,16
    1664:	8082                	ret

Disassembly of section .text._trap_handler_mti:

00001666 <_trap_handler_mti>:
_trap_handler_mti():
D:\42__Project__CREOSS__SW\51__Lambda\CPUFW\21__BIOS\WS\BIOS\Release/../Src/CRT0_LD_TRAP_CSR/TRAP/crs32v_trap_handler_irq.c:19

void	_trap_handler_mti()	{
    1666:	1141                	addi	sp,sp,-16
    1668:	c606                	sw	ra,12(sp)
    166a:	c422                	sw	s0,8(sp)
D:\42__Project__CREOSS__SW\51__Lambda\CPUFW\21__BIOS\WS\BIOS\Release/../Src/CRT0_LD_TRAP_CSR/TRAP/crs32v_trap_handler_irq.c:20
	unsigned int	_trap_mepc_keep_buf = csr_read(mepc);	// push for nested exception
    166c:	34102473          	csrr	s0,mepc
D:\42__Project__CREOSS__SW\51__Lambda\CPUFW\21__BIOS\WS\BIOS\Release/../Src/CRT0_LD_TRAP_CSR/TRAP/crs32v_trap_handler_irq.c:21
	crs32v_trap_mti();
    1670:	373000ef          	jal	ra,21e2 <crs32v_trap_mti>
D:\42__Project__CREOSS__SW\51__Lambda\CPUFW\21__BIOS\WS\BIOS\Release/../Src/CRT0_LD_TRAP_CSR/TRAP/crs32v_trap_handler_irq.c:22
	csr_write(mepc, _trap_mepc_keep_buf);
    1674:	34141073          	csrw	mepc,s0
D:\42__Project__CREOSS__SW\51__Lambda\CPUFW\21__BIOS\WS\BIOS\Release/../Src/CRT0_LD_TRAP_CSR/TRAP/crs32v_trap_handler_irq.c:23
}
    1678:	40b2                	lw	ra,12(sp)
    167a:	4422                	lw	s0,8(sp)
    167c:	0141                	addi	sp,sp,16
    167e:	8082                	ret

Disassembly of section .text._trap_handler_mei:

00001680 <_trap_handler_mei>:
_trap_handler_mei():
D:\42__Project__CREOSS__SW\51__Lambda\CPUFW\21__BIOS\WS\BIOS\Release/../Src/CRT0_LD_TRAP_CSR/TRAP/crs32v_trap_handler_irq.c:25

void	_trap_handler_mei()	{
    1680:	1141                	addi	sp,sp,-16
    1682:	c606                	sw	ra,12(sp)
    1684:	c422                	sw	s0,8(sp)
D:\42__Project__CREOSS__SW\51__Lambda\CPUFW\21__BIOS\WS\BIOS\Release/../Src/CRT0_LD_TRAP_CSR/TRAP/crs32v_trap_handler_irq.c:26
	unsigned int	_trap_mepc_keep_buf = csr_read(mepc);	// push for nested exception
    1686:	34102473          	csrr	s0,mepc
D:\42__Project__CREOSS__SW\51__Lambda\CPUFW\21__BIOS\WS\BIOS\Release/../Src/CRT0_LD_TRAP_CSR/TRAP/crs32v_trap_handler_irq.c:27
	crs32v_trap_mei();
    168a:	35b000ef          	jal	ra,21e4 <crs32v_trap_mei>
D:\42__Project__CREOSS__SW\51__Lambda\CPUFW\21__BIOS\WS\BIOS\Release/../Src/CRT0_LD_TRAP_CSR/TRAP/crs32v_trap_handler_irq.c:28
	csr_write(mepc, _trap_mepc_keep_buf);
    168e:	34141073          	csrw	mepc,s0
D:\42__Project__CREOSS__SW\51__Lambda\CPUFW\21__BIOS\WS\BIOS\Release/../Src/CRT0_LD_TRAP_CSR/TRAP/crs32v_trap_handler_irq.c:29
}
    1692:	40b2                	lw	ra,12(sp)
    1694:	4422                	lw	s0,8(sp)
    1696:	0141                	addi	sp,sp,16
    1698:	8082                	ret

Disassembly of section .text._trap_handler_irq_00:

0000169a <_trap_handler_irq_00>:
_trap_handler_irq_00():
D:\42__Project__CREOSS__SW\51__Lambda\CPUFW\21__BIOS\WS\BIOS\Release/../Src/CRT0_LD_TRAP_CSR/TRAP/crs32v_trap_handler_irq.c:31

void	_trap_handler_irq_00()	{
    169a:	1141                	addi	sp,sp,-16
    169c:	c606                	sw	ra,12(sp)
    169e:	c422                	sw	s0,8(sp)
D:\42__Project__CREOSS__SW\51__Lambda\CPUFW\21__BIOS\WS\BIOS\Release/../Src/CRT0_LD_TRAP_CSR/TRAP/crs32v_trap_handler_irq.c:32
	unsigned int	_trap_mepc_keep_buf = csr_read(mepc);	// push for nested exception
    16a0:	34102473          	csrr	s0,mepc
D:\42__Project__CREOSS__SW\51__Lambda\CPUFW\21__BIOS\WS\BIOS\Release/../Src/CRT0_LD_TRAP_CSR/TRAP/crs32v_trap_handler_irq.c:33
	crs32v_trap_mfi_00();
    16a4:	363000ef          	jal	ra,2206 <crs32v_trap_mfi_00>
D:\42__Project__CREOSS__SW\51__Lambda\CPUFW\21__BIOS\WS\BIOS\Release/../Src/CRT0_LD_TRAP_CSR/TRAP/crs32v_trap_handler_irq.c:34
	csr_write(mepc, _trap_mepc_keep_buf);
    16a8:	34141073          	csrw	mepc,s0
D:\42__Project__CREOSS__SW\51__Lambda\CPUFW\21__BIOS\WS\BIOS\Release/../Src/CRT0_LD_TRAP_CSR/TRAP/crs32v_trap_handler_irq.c:35
}
    16ac:	40b2                	lw	ra,12(sp)
    16ae:	4422                	lw	s0,8(sp)
    16b0:	0141                	addi	sp,sp,16
    16b2:	8082                	ret

Disassembly of section .text._trap_handler_irq_01:

000016b4 <_trap_handler_irq_01>:
_trap_handler_irq_01():
D:\42__Project__CREOSS__SW\51__Lambda\CPUFW\21__BIOS\WS\BIOS\Release/../Src/CRT0_LD_TRAP_CSR/TRAP/crs32v_trap_handler_irq.c:37

void	_trap_handler_irq_01()	{
    16b4:	1141                	addi	sp,sp,-16
    16b6:	c606                	sw	ra,12(sp)
    16b8:	c422                	sw	s0,8(sp)
D:\42__Project__CREOSS__SW\51__Lambda\CPUFW\21__BIOS\WS\BIOS\Release/../Src/CRT0_LD_TRAP_CSR/TRAP/crs32v_trap_handler_irq.c:38
	unsigned int	_trap_mepc_keep_buf = csr_read(mepc);	// push for nested exception
    16ba:	34102473          	csrr	s0,mepc
D:\42__Project__CREOSS__SW\51__Lambda\CPUFW\21__BIOS\WS\BIOS\Release/../Src/CRT0_LD_TRAP_CSR/TRAP/crs32v_trap_handler_irq.c:39
	crs32v_trap_mfi_01();
    16be:	357000ef          	jal	ra,2214 <crs32v_trap_mfi_01>
D:\42__Project__CREOSS__SW\51__Lambda\CPUFW\21__BIOS\WS\BIOS\Release/../Src/CRT0_LD_TRAP_CSR/TRAP/crs32v_trap_handler_irq.c:40
	csr_write(mepc, _trap_mepc_keep_buf);
    16c2:	34141073          	csrw	mepc,s0
D:\42__Project__CREOSS__SW\51__Lambda\CPUFW\21__BIOS\WS\BIOS\Release/../Src/CRT0_LD_TRAP_CSR/TRAP/crs32v_trap_handler_irq.c:41
}
    16c6:	40b2                	lw	ra,12(sp)
    16c8:	4422                	lw	s0,8(sp)
    16ca:	0141                	addi	sp,sp,16
    16cc:	8082                	ret

Disassembly of section .text._trap_handler_irq_02:

000016ce <_trap_handler_irq_02>:
_trap_handler_irq_02():
D:\42__Project__CREOSS__SW\51__Lambda\CPUFW\21__BIOS\WS\BIOS\Release/../Src/CRT0_LD_TRAP_CSR/TRAP/crs32v_trap_handler_irq.c:43

void	_trap_handler_irq_02()	{
    16ce:	1141                	addi	sp,sp,-16
    16d0:	c606                	sw	ra,12(sp)
    16d2:	c422                	sw	s0,8(sp)
D:\42__Project__CREOSS__SW\51__Lambda\CPUFW\21__BIOS\WS\BIOS\Release/../Src/CRT0_LD_TRAP_CSR/TRAP/crs32v_trap_handler_irq.c:44
	unsigned int	_trap_mepc_keep_buf = csr_read(mepc);	// push for nested exception
    16d4:	34102473          	csrr	s0,mepc
D:\42__Project__CREOSS__SW\51__Lambda\CPUFW\21__BIOS\WS\BIOS\Release/../Src/CRT0_LD_TRAP_CSR/TRAP/crs32v_trap_handler_irq.c:45
	crs32v_trap_mfi_02();
    16d8:	34b000ef          	jal	ra,2222 <crs32v_trap_mfi_02>
D:\42__Project__CREOSS__SW\51__Lambda\CPUFW\21__BIOS\WS\BIOS\Release/../Src/CRT0_LD_TRAP_CSR/TRAP/crs32v_trap_handler_irq.c:46
	csr_write(mepc, _trap_mepc_keep_buf);
    16dc:	34141073          	csrw	mepc,s0
D:\42__Project__CREOSS__SW\51__Lambda\CPUFW\21__BIOS\WS\BIOS\Release/../Src/CRT0_LD_TRAP_CSR/TRAP/crs32v_trap_handler_irq.c:47
}
    16e0:	40b2                	lw	ra,12(sp)
    16e2:	4422                	lw	s0,8(sp)
    16e4:	0141                	addi	sp,sp,16
    16e6:	8082                	ret

Disassembly of section .text._trap_handler_irq_03:

000016e8 <_trap_handler_irq_03>:
_trap_handler_irq_03():
D:\42__Project__CREOSS__SW\51__Lambda\CPUFW\21__BIOS\WS\BIOS\Release/../Src/CRT0_LD_TRAP_CSR/TRAP/crs32v_trap_handler_irq.c:49

void	_trap_handler_irq_03()	{
    16e8:	1141                	addi	sp,sp,-16
    16ea:	c606                	sw	ra,12(sp)
    16ec:	c422                	sw	s0,8(sp)
D:\42__Project__CREOSS__SW\51__Lambda\CPUFW\21__BIOS\WS\BIOS\Release/../Src/CRT0_LD_TRAP_CSR/TRAP/crs32v_trap_handler_irq.c:50
	unsigned int	_trap_mepc_keep_buf = csr_read(mepc);	// push for nested exception
    16ee:	34102473          	csrr	s0,mepc
D:\42__Project__CREOSS__SW\51__Lambda\CPUFW\21__BIOS\WS\BIOS\Release/../Src/CRT0_LD_TRAP_CSR/TRAP/crs32v_trap_handler_irq.c:51
	crs32v_trap_mfi_03();
    16f2:	33f000ef          	jal	ra,2230 <crs32v_trap_mfi_03>
D:\42__Project__CREOSS__SW\51__Lambda\CPUFW\21__BIOS\WS\BIOS\Release/../Src/CRT0_LD_TRAP_CSR/TRAP/crs32v_trap_handler_irq.c:52
	csr_write(mepc, _trap_mepc_keep_buf);
    16f6:	34141073          	csrw	mepc,s0
D:\42__Project__CREOSS__SW\51__Lambda\CPUFW\21__BIOS\WS\BIOS\Release/../Src/CRT0_LD_TRAP_CSR/TRAP/crs32v_trap_handler_irq.c:53
}
    16fa:	40b2                	lw	ra,12(sp)
    16fc:	4422                	lw	s0,8(sp)
    16fe:	0141                	addi	sp,sp,16
    1700:	8082                	ret

Disassembly of section .text._trap_handler_irq_04:

00001702 <_trap_handler_irq_04>:
_trap_handler_irq_04():
D:\42__Project__CREOSS__SW\51__Lambda\CPUFW\21__BIOS\WS\BIOS\Release/../Src/CRT0_LD_TRAP_CSR/TRAP/crs32v_trap_handler_irq.c:55

void	_trap_handler_irq_04()	{
    1702:	1141                	addi	sp,sp,-16
    1704:	c606                	sw	ra,12(sp)
    1706:	c422                	sw	s0,8(sp)
D:\42__Project__CREOSS__SW\51__Lambda\CPUFW\21__BIOS\WS\BIOS\Release/../Src/CRT0_LD_TRAP_CSR/TRAP/crs32v_trap_handler_irq.c:56
	unsigned int	_trap_mepc_keep_buf = csr_read(mepc);	// push for nested exception
    1708:	34102473          	csrr	s0,mepc
D:\42__Project__CREOSS__SW\51__Lambda\CPUFW\21__BIOS\WS\BIOS\Release/../Src/CRT0_LD_TRAP_CSR/TRAP/crs32v_trap_handler_irq.c:57
	crs32v_trap_mfi_04();
    170c:	333000ef          	jal	ra,223e <crs32v_trap_mfi_04>
D:\42__Project__CREOSS__SW\51__Lambda\CPUFW\21__BIOS\WS\BIOS\Release/../Src/CRT0_LD_TRAP_CSR/TRAP/crs32v_trap_handler_irq.c:58
	csr_write(mepc, _trap_mepc_keep_buf);
    1710:	34141073          	csrw	mepc,s0
D:\42__Project__CREOSS__SW\51__Lambda\CPUFW\21__BIOS\WS\BIOS\Release/../Src/CRT0_LD_TRAP_CSR/TRAP/crs32v_trap_handler_irq.c:59
}
    1714:	40b2                	lw	ra,12(sp)
    1716:	4422                	lw	s0,8(sp)
    1718:	0141                	addi	sp,sp,16
    171a:	8082                	ret

Disassembly of section .text._trap_handler_irq_05:

0000171c <_trap_handler_irq_05>:
_trap_handler_irq_05():
D:\42__Project__CREOSS__SW\51__Lambda\CPUFW\21__BIOS\WS\BIOS\Release/../Src/CRT0_LD_TRAP_CSR/TRAP/crs32v_trap_handler_irq.c:61

void	_trap_handler_irq_05()	{
    171c:	1141                	addi	sp,sp,-16
    171e:	c606                	sw	ra,12(sp)
    1720:	c422                	sw	s0,8(sp)
D:\42__Project__CREOSS__SW\51__Lambda\CPUFW\21__BIOS\WS\BIOS\Release/../Src/CRT0_LD_TRAP_CSR/TRAP/crs32v_trap_handler_irq.c:62
	unsigned int	_trap_mepc_keep_buf = csr_read(mepc);	// push for nested exception
    1722:	34102473          	csrr	s0,mepc
D:\42__Project__CREOSS__SW\51__Lambda\CPUFW\21__BIOS\WS\BIOS\Release/../Src/CRT0_LD_TRAP_CSR/TRAP/crs32v_trap_handler_irq.c:63
	crs32v_trap_mfi_05();
    1726:	327000ef          	jal	ra,224c <crs32v_trap_mfi_05>
D:\42__Project__CREOSS__SW\51__Lambda\CPUFW\21__BIOS\WS\BIOS\Release/../Src/CRT0_LD_TRAP_CSR/TRAP/crs32v_trap_handler_irq.c:64
	csr_write(mepc, _trap_mepc_keep_buf);
    172a:	34141073          	csrw	mepc,s0
D:\42__Project__CREOSS__SW\51__Lambda\CPUFW\21__BIOS\WS\BIOS\Release/../Src/CRT0_LD_TRAP_CSR/TRAP/crs32v_trap_handler_irq.c:65
}
    172e:	40b2                	lw	ra,12(sp)
    1730:	4422                	lw	s0,8(sp)
    1732:	0141                	addi	sp,sp,16
    1734:	8082                	ret

Disassembly of section .text._trap_handler_irq_06:

00001736 <_trap_handler_irq_06>:
_trap_handler_irq_06():
D:\42__Project__CREOSS__SW\51__Lambda\CPUFW\21__BIOS\WS\BIOS\Release/../Src/CRT0_LD_TRAP_CSR/TRAP/crs32v_trap_handler_irq.c:67

void	_trap_handler_irq_06()	{
    1736:	1141                	addi	sp,sp,-16
    1738:	c606                	sw	ra,12(sp)
    173a:	c422                	sw	s0,8(sp)
D:\42__Project__CREOSS__SW\51__Lambda\CPUFW\21__BIOS\WS\BIOS\Release/../Src/CRT0_LD_TRAP_CSR/TRAP/crs32v_trap_handler_irq.c:68
	unsigned int	_trap_mepc_keep_buf = csr_read(mepc);	// push for nested exception
    173c:	34102473          	csrr	s0,mepc
D:\42__Project__CREOSS__SW\51__Lambda\CPUFW\21__BIOS\WS\BIOS\Release/../Src/CRT0_LD_TRAP_CSR/TRAP/crs32v_trap_handler_irq.c:69
	crs32v_trap_mfi_06();
    1740:	31d000ef          	jal	ra,225c <crs32v_trap_mfi_06>
D:\42__Project__CREOSS__SW\51__Lambda\CPUFW\21__BIOS\WS\BIOS\Release/../Src/CRT0_LD_TRAP_CSR/TRAP/crs32v_trap_handler_irq.c:70
	csr_write(mepc, _trap_mepc_keep_buf);
    1744:	34141073          	csrw	mepc,s0
D:\42__Project__CREOSS__SW\51__Lambda\CPUFW\21__BIOS\WS\BIOS\Release/../Src/CRT0_LD_TRAP_CSR/TRAP/crs32v_trap_handler_irq.c:71
}
    1748:	40b2                	lw	ra,12(sp)
    174a:	4422                	lw	s0,8(sp)
    174c:	0141                	addi	sp,sp,16
    174e:	8082                	ret

Disassembly of section .text._trap_handler_irq_07:

00001750 <_trap_handler_irq_07>:
_trap_handler_irq_07():
D:\42__Project__CREOSS__SW\51__Lambda\CPUFW\21__BIOS\WS\BIOS\Release/../Src/CRT0_LD_TRAP_CSR/TRAP/crs32v_trap_handler_irq.c:73

void	_trap_handler_irq_07()	{
    1750:	1141                	addi	sp,sp,-16
    1752:	c606                	sw	ra,12(sp)
    1754:	c422                	sw	s0,8(sp)
D:\42__Project__CREOSS__SW\51__Lambda\CPUFW\21__BIOS\WS\BIOS\Release/../Src/CRT0_LD_TRAP_CSR/TRAP/crs32v_trap_handler_irq.c:74
	unsigned int	_trap_mepc_keep_buf = csr_read(mepc);	// push for nested exception
    1756:	34102473          	csrr	s0,mepc
D:\42__Project__CREOSS__SW\51__Lambda\CPUFW\21__BIOS\WS\BIOS\Release/../Src/CRT0_LD_TRAP_CSR/TRAP/crs32v_trap_handler_irq.c:75
	crs32v_trap_mfi_07();
    175a:	311000ef          	jal	ra,226a <crs32v_trap_mfi_07>
D:\42__Project__CREOSS__SW\51__Lambda\CPUFW\21__BIOS\WS\BIOS\Release/../Src/CRT0_LD_TRAP_CSR/TRAP/crs32v_trap_handler_irq.c:76
	csr_write(mepc, _trap_mepc_keep_buf);
    175e:	34141073          	csrw	mepc,s0
D:\42__Project__CREOSS__SW\51__Lambda\CPUFW\21__BIOS\WS\BIOS\Release/../Src/CRT0_LD_TRAP_CSR/TRAP/crs32v_trap_handler_irq.c:77
}
    1762:	40b2                	lw	ra,12(sp)
    1764:	4422                	lw	s0,8(sp)
    1766:	0141                	addi	sp,sp,16
    1768:	8082                	ret

Disassembly of section .text._trap_handler_irq_08:

0000176a <_trap_handler_irq_08>:
_trap_handler_irq_08():
D:\42__Project__CREOSS__SW\51__Lambda\CPUFW\21__BIOS\WS\BIOS\Release/../Src/CRT0_LD_TRAP_CSR/TRAP/crs32v_trap_handler_irq.c:79

void	_trap_handler_irq_08()	{
    176a:	1141                	addi	sp,sp,-16
    176c:	c606                	sw	ra,12(sp)
    176e:	c422                	sw	s0,8(sp)
D:\42__Project__CREOSS__SW\51__Lambda\CPUFW\21__BIOS\WS\BIOS\Release/../Src/CRT0_LD_TRAP_CSR/TRAP/crs32v_trap_handler_irq.c:80
	unsigned int	_trap_mepc_keep_buf = csr_read(mepc);	// push for nested exception
    1770:	34102473          	csrr	s0,mepc
D:\42__Project__CREOSS__SW\51__Lambda\CPUFW\21__BIOS\WS\BIOS\Release/../Src/CRT0_LD_TRAP_CSR/TRAP/crs32v_trap_handler_irq.c:81
	crs32v_trap_mfi_08();
    1774:	307000ef          	jal	ra,227a <crs32v_trap_mfi_08>
D:\42__Project__CREOSS__SW\51__Lambda\CPUFW\21__BIOS\WS\BIOS\Release/../Src/CRT0_LD_TRAP_CSR/TRAP/crs32v_trap_handler_irq.c:82
	csr_write(mepc, _trap_mepc_keep_buf);
    1778:	34141073          	csrw	mepc,s0
D:\42__Project__CREOSS__SW\51__Lambda\CPUFW\21__BIOS\WS\BIOS\Release/../Src/CRT0_LD_TRAP_CSR/TRAP/crs32v_trap_handler_irq.c:83
}
    177c:	40b2                	lw	ra,12(sp)
    177e:	4422                	lw	s0,8(sp)
    1780:	0141                	addi	sp,sp,16
    1782:	8082                	ret

Disassembly of section .text._trap_handler_irq_09:

00001784 <_trap_handler_irq_09>:
_trap_handler_irq_09():
D:\42__Project__CREOSS__SW\51__Lambda\CPUFW\21__BIOS\WS\BIOS\Release/../Src/CRT0_LD_TRAP_CSR/TRAP/crs32v_trap_handler_irq.c:85

void	_trap_handler_irq_09()	{
    1784:	1141                	addi	sp,sp,-16
    1786:	c606                	sw	ra,12(sp)
    1788:	c422                	sw	s0,8(sp)
D:\42__Project__CREOSS__SW\51__Lambda\CPUFW\21__BIOS\WS\BIOS\Release/../Src/CRT0_LD_TRAP_CSR/TRAP/crs32v_trap_handler_irq.c:86
	unsigned int	_trap_mepc_keep_buf = csr_read(mepc);	// push for nested exception
    178a:	34102473          	csrr	s0,mepc
D:\42__Project__CREOSS__SW\51__Lambda\CPUFW\21__BIOS\WS\BIOS\Release/../Src/CRT0_LD_TRAP_CSR/TRAP/crs32v_trap_handler_irq.c:87
	crs32v_trap_mfi_09();
    178e:	2fd000ef          	jal	ra,228a <crs32v_trap_mfi_09>
D:\42__Project__CREOSS__SW\51__Lambda\CPUFW\21__BIOS\WS\BIOS\Release/../Src/CRT0_LD_TRAP_CSR/TRAP/crs32v_trap_handler_irq.c:88
	csr_write(mepc, _trap_mepc_keep_buf);
    1792:	34141073          	csrw	mepc,s0
D:\42__Project__CREOSS__SW\51__Lambda\CPUFW\21__BIOS\WS\BIOS\Release/../Src/CRT0_LD_TRAP_CSR/TRAP/crs32v_trap_handler_irq.c:89
}
    1796:	40b2                	lw	ra,12(sp)
    1798:	4422                	lw	s0,8(sp)
    179a:	0141                	addi	sp,sp,16
    179c:	8082                	ret

Disassembly of section .text._trap_handler_irq_10:

0000179e <_trap_handler_irq_10>:
_trap_handler_irq_10():
D:\42__Project__CREOSS__SW\51__Lambda\CPUFW\21__BIOS\WS\BIOS\Release/../Src/CRT0_LD_TRAP_CSR/TRAP/crs32v_trap_handler_irq.c:91

void	_trap_handler_irq_10()	{
    179e:	1141                	addi	sp,sp,-16
    17a0:	c606                	sw	ra,12(sp)
    17a2:	c422                	sw	s0,8(sp)
D:\42__Project__CREOSS__SW\51__Lambda\CPUFW\21__BIOS\WS\BIOS\Release/../Src/CRT0_LD_TRAP_CSR/TRAP/crs32v_trap_handler_irq.c:92
	unsigned int	_trap_mepc_keep_buf = csr_read(mepc);	// push for nested exception
    17a4:	34102473          	csrr	s0,mepc
D:\42__Project__CREOSS__SW\51__Lambda\CPUFW\21__BIOS\WS\BIOS\Release/../Src/CRT0_LD_TRAP_CSR/TRAP/crs32v_trap_handler_irq.c:93
	crs32v_trap_mfi_10();
    17a8:	2f3000ef          	jal	ra,229a <crs32v_trap_mfi_10>
D:\42__Project__CREOSS__SW\51__Lambda\CPUFW\21__BIOS\WS\BIOS\Release/../Src/CRT0_LD_TRAP_CSR/TRAP/crs32v_trap_handler_irq.c:94
	csr_write(mepc, _trap_mepc_keep_buf);
    17ac:	34141073          	csrw	mepc,s0
D:\42__Project__CREOSS__SW\51__Lambda\CPUFW\21__BIOS\WS\BIOS\Release/../Src/CRT0_LD_TRAP_CSR/TRAP/crs32v_trap_handler_irq.c:95
}
    17b0:	40b2                	lw	ra,12(sp)
    17b2:	4422                	lw	s0,8(sp)
    17b4:	0141                	addi	sp,sp,16
    17b6:	8082                	ret

Disassembly of section .text._trap_handler_irq_11:

000017b8 <_trap_handler_irq_11>:
_trap_handler_irq_11():
D:\42__Project__CREOSS__SW\51__Lambda\CPUFW\21__BIOS\WS\BIOS\Release/../Src/CRT0_LD_TRAP_CSR/TRAP/crs32v_trap_handler_irq.c:97

void	_trap_handler_irq_11()	{
    17b8:	1141                	addi	sp,sp,-16
    17ba:	c606                	sw	ra,12(sp)
    17bc:	c422                	sw	s0,8(sp)
D:\42__Project__CREOSS__SW\51__Lambda\CPUFW\21__BIOS\WS\BIOS\Release/../Src/CRT0_LD_TRAP_CSR/TRAP/crs32v_trap_handler_irq.c:98
	unsigned int	_trap_mepc_keep_buf = csr_read(mepc);	// push for nested exception
    17be:	34102473          	csrr	s0,mepc
D:\42__Project__CREOSS__SW\51__Lambda\CPUFW\21__BIOS\WS\BIOS\Release/../Src/CRT0_LD_TRAP_CSR/TRAP/crs32v_trap_handler_irq.c:99
	crs32v_trap_mfi_11();
    17c2:	2e9000ef          	jal	ra,22aa <crs32v_trap_mfi_11>
D:\42__Project__CREOSS__SW\51__Lambda\CPUFW\21__BIOS\WS\BIOS\Release/../Src/CRT0_LD_TRAP_CSR/TRAP/crs32v_trap_handler_irq.c:100
	csr_write(mepc, _trap_mepc_keep_buf);
    17c6:	34141073          	csrw	mepc,s0
D:\42__Project__CREOSS__SW\51__Lambda\CPUFW\21__BIOS\WS\BIOS\Release/../Src/CRT0_LD_TRAP_CSR/TRAP/crs32v_trap_handler_irq.c:101
}
    17ca:	40b2                	lw	ra,12(sp)
    17cc:	4422                	lw	s0,8(sp)
    17ce:	0141                	addi	sp,sp,16
    17d0:	8082                	ret

Disassembly of section .text._trap_handler_irq_12:

000017d2 <_trap_handler_irq_12>:
_trap_handler_irq_12():
D:\42__Project__CREOSS__SW\51__Lambda\CPUFW\21__BIOS\WS\BIOS\Release/../Src/CRT0_LD_TRAP_CSR/TRAP/crs32v_trap_handler_irq.c:103

void	_trap_handler_irq_12()	{
    17d2:	1141                	addi	sp,sp,-16
    17d4:	c606                	sw	ra,12(sp)
    17d6:	c422                	sw	s0,8(sp)
D:\42__Project__CREOSS__SW\51__Lambda\CPUFW\21__BIOS\WS\BIOS\Release/../Src/CRT0_LD_TRAP_CSR/TRAP/crs32v_trap_handler_irq.c:104
	unsigned int	_trap_mepc_keep_buf = csr_read(mepc);	// push for nested exception
    17d8:	34102473          	csrr	s0,mepc
D:\42__Project__CREOSS__SW\51__Lambda\CPUFW\21__BIOS\WS\BIOS\Release/../Src/CRT0_LD_TRAP_CSR/TRAP/crs32v_trap_handler_irq.c:105
	crs32v_trap_mfi_12();
    17dc:	2e3000ef          	jal	ra,22be <crs32v_trap_mfi_12>
D:\42__Project__CREOSS__SW\51__Lambda\CPUFW\21__BIOS\WS\BIOS\Release/../Src/CRT0_LD_TRAP_CSR/TRAP/crs32v_trap_handler_irq.c:106
	csr_write(mepc, _trap_mepc_keep_buf);
    17e0:	34141073          	csrw	mepc,s0
D:\42__Project__CREOSS__SW\51__Lambda\CPUFW\21__BIOS\WS\BIOS\Release/../Src/CRT0_LD_TRAP_CSR/TRAP/crs32v_trap_handler_irq.c:107
}
    17e4:	40b2                	lw	ra,12(sp)
    17e6:	4422                	lw	s0,8(sp)
    17e8:	0141                	addi	sp,sp,16
    17ea:	8082                	ret

Disassembly of section .text._trap_handler_irq_13:

000017ec <_trap_handler_irq_13>:
_trap_handler_irq_13():
D:\42__Project__CREOSS__SW\51__Lambda\CPUFW\21__BIOS\WS\BIOS\Release/../Src/CRT0_LD_TRAP_CSR/TRAP/crs32v_trap_handler_irq.c:109

void	_trap_handler_irq_13()	{
    17ec:	1141                	addi	sp,sp,-16
    17ee:	c606                	sw	ra,12(sp)
    17f0:	c422                	sw	s0,8(sp)
D:\42__Project__CREOSS__SW\51__Lambda\CPUFW\21__BIOS\WS\BIOS\Release/../Src/CRT0_LD_TRAP_CSR/TRAP/crs32v_trap_handler_irq.c:110
	unsigned int	_trap_mepc_keep_buf = csr_read(mepc);	// push for nested exception
    17f2:	34102473          	csrr	s0,mepc
D:\42__Project__CREOSS__SW\51__Lambda\CPUFW\21__BIOS\WS\BIOS\Release/../Src/CRT0_LD_TRAP_CSR/TRAP/crs32v_trap_handler_irq.c:111
	crs32v_trap_mfi_13();
    17f6:	2d7000ef          	jal	ra,22cc <crs32v_trap_mfi_13>
D:\42__Project__CREOSS__SW\51__Lambda\CPUFW\21__BIOS\WS\BIOS\Release/../Src/CRT0_LD_TRAP_CSR/TRAP/crs32v_trap_handler_irq.c:112
	csr_write(mepc, _trap_mepc_keep_buf);
    17fa:	34141073          	csrw	mepc,s0
D:\42__Project__CREOSS__SW\51__Lambda\CPUFW\21__BIOS\WS\BIOS\Release/../Src/CRT0_LD_TRAP_CSR/TRAP/crs32v_trap_handler_irq.c:113
}
    17fe:	40b2                	lw	ra,12(sp)
    1800:	4422                	lw	s0,8(sp)
    1802:	0141                	addi	sp,sp,16
    1804:	8082                	ret

Disassembly of section .text._trap_handler_irq_14:

00001806 <_trap_handler_irq_14>:
_trap_handler_irq_14():
D:\42__Project__CREOSS__SW\51__Lambda\CPUFW\21__BIOS\WS\BIOS\Release/../Src/CRT0_LD_TRAP_CSR/TRAP/crs32v_trap_handler_irq.c:115

void	_trap_handler_irq_14()	{
    1806:	1141                	addi	sp,sp,-16
    1808:	c606                	sw	ra,12(sp)
    180a:	c422                	sw	s0,8(sp)
D:\42__Project__CREOSS__SW\51__Lambda\CPUFW\21__BIOS\WS\BIOS\Release/../Src/CRT0_LD_TRAP_CSR/TRAP/crs32v_trap_handler_irq.c:116
	unsigned int	_trap_mepc_keep_buf = csr_read(mepc);	// push for nested exception
    180c:	34102473          	csrr	s0,mepc
D:\42__Project__CREOSS__SW\51__Lambda\CPUFW\21__BIOS\WS\BIOS\Release/../Src/CRT0_LD_TRAP_CSR/TRAP/crs32v_trap_handler_irq.c:117
	crs32v_trap_mfi_14();
    1810:	2cb000ef          	jal	ra,22da <crs32v_trap_mfi_14>
D:\42__Project__CREOSS__SW\51__Lambda\CPUFW\21__BIOS\WS\BIOS\Release/../Src/CRT0_LD_TRAP_CSR/TRAP/crs32v_trap_handler_irq.c:118
	csr_write(mepc, _trap_mepc_keep_buf);
    1814:	34141073          	csrw	mepc,s0
D:\42__Project__CREOSS__SW\51__Lambda\CPUFW\21__BIOS\WS\BIOS\Release/../Src/CRT0_LD_TRAP_CSR/TRAP/crs32v_trap_handler_irq.c:119
}
    1818:	40b2                	lw	ra,12(sp)
    181a:	4422                	lw	s0,8(sp)
    181c:	0141                	addi	sp,sp,16
    181e:	8082                	ret

Disassembly of section .text._trap_handler_irq_15:

00001820 <_trap_handler_irq_15>:
_trap_handler_irq_15():
D:\42__Project__CREOSS__SW\51__Lambda\CPUFW\21__BIOS\WS\BIOS\Release/../Src/CRT0_LD_TRAP_CSR/TRAP/crs32v_trap_handler_irq.c:121

void	_trap_handler_irq_15()	{
    1820:	1141                	addi	sp,sp,-16
    1822:	c606                	sw	ra,12(sp)
    1824:	c422                	sw	s0,8(sp)
D:\42__Project__CREOSS__SW\51__Lambda\CPUFW\21__BIOS\WS\BIOS\Release/../Src/CRT0_LD_TRAP_CSR/TRAP/crs32v_trap_handler_irq.c:122
	unsigned int	_trap_mepc_keep_buf = csr_read(mepc);	// push for nested exception
    1826:	34102473          	csrr	s0,mepc
D:\42__Project__CREOSS__SW\51__Lambda\CPUFW\21__BIOS\WS\BIOS\Release/../Src/CRT0_LD_TRAP_CSR/TRAP/crs32v_trap_handler_irq.c:123
	crs32v_trap_mfi_15();
    182a:	2bf000ef          	jal	ra,22e8 <crs32v_trap_mfi_15>
D:\42__Project__CREOSS__SW\51__Lambda\CPUFW\21__BIOS\WS\BIOS\Release/../Src/CRT0_LD_TRAP_CSR/TRAP/crs32v_trap_handler_irq.c:124
	csr_write(mepc, _trap_mepc_keep_buf);
    182e:	34141073          	csrw	mepc,s0
D:\42__Project__CREOSS__SW\51__Lambda\CPUFW\21__BIOS\WS\BIOS\Release/../Src/CRT0_LD_TRAP_CSR/TRAP/crs32v_trap_handler_irq.c:125
}
    1832:	40b2                	lw	ra,12(sp)
    1834:	4422                	lw	s0,8(sp)
    1836:	0141                	addi	sp,sp,16
    1838:	8082                	ret

Disassembly of section .text.csr_check:

0000183a <csr_check>:
csr_check():
D:\42__Project__CREOSS__SW\51__Lambda\CPUFW\21__BIOS\WS\BIOS\Release/../Src/CRT0_LD_TRAP_CSR/CSR/crs32v_csr.c:34
// Functions
//======================================================================

void	csr_check()
{
	print_str("MISA      = ");	print_hex(csr_read(misa), 8);		print_str("\n");
    183a:	810d0537          	lui	a0,0x810d0
D:\42__Project__CREOSS__SW\51__Lambda\CPUFW\21__BIOS\WS\BIOS\Release/../Src/CRT0_LD_TRAP_CSR/CSR/crs32v_csr.c:33
{
    183e:	1141                	addi	sp,sp,-16
D:\42__Project__CREOSS__SW\51__Lambda\CPUFW\21__BIOS\WS\BIOS\Release/../Src/CRT0_LD_TRAP_CSR/CSR/crs32v_csr.c:34
	print_str("MISA      = ");	print_hex(csr_read(misa), 8);		print_str("\n");
    1840:	29c50513          	addi	a0,a0,668 # 810d029c <_ctype_+0xffffff44>
D:\42__Project__CREOSS__SW\51__Lambda\CPUFW\21__BIOS\WS\BIOS\Release/../Src/CRT0_LD_TRAP_CSR/CSR/crs32v_csr.c:33
{
    1844:	c606                	sw	ra,12(sp)
    1846:	c422                	sw	s0,8(sp)
D:\42__Project__CREOSS__SW\51__Lambda\CPUFW\21__BIOS\WS\BIOS\Release/../Src/CRT0_LD_TRAP_CSR/CSR/crs32v_csr.c:34
	print_str("MISA      = ");	print_hex(csr_read(misa), 8);		print_str("\n");
    1848:	c27fe0ef          	jal	ra,46e <print_str>
    184c:	30102573          	csrr	a0,misa
    1850:	45a1                	li	a1,8
    1852:	c79fe0ef          	jal	ra,4ca <print_hex>
    1856:	810d0437          	lui	s0,0x810d0
    185a:	22040513          	addi	a0,s0,544 # 810d0220 <_ctype_+0xfffffec8>
    185e:	c11fe0ef          	jal	ra,46e <print_str>
D:\42__Project__CREOSS__SW\51__Lambda\CPUFW\21__BIOS\WS\BIOS\Release/../Src/CRT0_LD_TRAP_CSR/CSR/crs32v_csr.c:35
	print_str("MVENDORID = ");	print_hex(csr_read(mvendorid), 8);	print_str("\n");
    1862:	810d0537          	lui	a0,0x810d0
    1866:	2ac50513          	addi	a0,a0,684 # 810d02ac <_ctype_+0xffffff54>
    186a:	c05fe0ef          	jal	ra,46e <print_str>
    186e:	f1102573          	csrr	a0,mvendorid
    1872:	45a1                	li	a1,8
    1874:	c57fe0ef          	jal	ra,4ca <print_hex>
    1878:	22040513          	addi	a0,s0,544
    187c:	bf3fe0ef          	jal	ra,46e <print_str>
D:\42__Project__CREOSS__SW\51__Lambda\CPUFW\21__BIOS\WS\BIOS\Release/../Src/CRT0_LD_TRAP_CSR/CSR/crs32v_csr.c:36
	print_str("MARCHID   = ");	print_hex(csr_read(marchid), 8);	print_str("\n");
    1880:	810d0537          	lui	a0,0x810d0
    1884:	2bc50513          	addi	a0,a0,700 # 810d02bc <_ctype_+0xffffff64>
    1888:	be7fe0ef          	jal	ra,46e <print_str>
    188c:	f1202573          	csrr	a0,marchid
    1890:	45a1                	li	a1,8
    1892:	c39fe0ef          	jal	ra,4ca <print_hex>
    1896:	22040513          	addi	a0,s0,544
    189a:	bd5fe0ef          	jal	ra,46e <print_str>
D:\42__Project__CREOSS__SW\51__Lambda\CPUFW\21__BIOS\WS\BIOS\Release/../Src/CRT0_LD_TRAP_CSR/CSR/crs32v_csr.c:37
	print_str("MIMPID    = ");	print_hex(csr_read(mimpid), 8);		print_str("\n");
    189e:	810d0537          	lui	a0,0x810d0
    18a2:	2cc50513          	addi	a0,a0,716 # 810d02cc <_ctype_+0xffffff74>
    18a6:	bc9fe0ef          	jal	ra,46e <print_str>
    18aa:	f1302573          	csrr	a0,mimpid
    18ae:	45a1                	li	a1,8
    18b0:	c1bfe0ef          	jal	ra,4ca <print_hex>
    18b4:	22040513          	addi	a0,s0,544
    18b8:	bb7fe0ef          	jal	ra,46e <print_str>
D:\42__Project__CREOSS__SW\51__Lambda\CPUFW\21__BIOS\WS\BIOS\Release/../Src/CRT0_LD_TRAP_CSR/CSR/crs32v_csr.c:38
	print_str("MHARTID   = ");	print_hex(csr_read(mhartid), 8);	print_str("\n");
    18bc:	810d0537          	lui	a0,0x810d0
    18c0:	2dc50513          	addi	a0,a0,732 # 810d02dc <_ctype_+0xffffff84>
    18c4:	babfe0ef          	jal	ra,46e <print_str>
    18c8:	f1402573          	csrr	a0,mhartid
    18cc:	45a1                	li	a1,8
    18ce:	bfdfe0ef          	jal	ra,4ca <print_hex>
    18d2:	22040513          	addi	a0,s0,544
    18d6:	b99fe0ef          	jal	ra,46e <print_str>
D:\42__Project__CREOSS__SW\51__Lambda\CPUFW\21__BIOS\WS\BIOS\Release/../Src/CRT0_LD_TRAP_CSR/CSR/crs32v_csr.c:39
	print_str("MSTATUS   = ");	print_hex(csr_read(mstatus), 8);	print_str("\n");
    18da:	810d0537          	lui	a0,0x810d0
    18de:	2ec50513          	addi	a0,a0,748 # 810d02ec <_ctype_+0xffffff94>
    18e2:	b8dfe0ef          	jal	ra,46e <print_str>
    18e6:	30002573          	csrr	a0,mstatus
    18ea:	45a1                	li	a1,8
    18ec:	bdffe0ef          	jal	ra,4ca <print_hex>
    18f0:	22040513          	addi	a0,s0,544
    18f4:	b7bfe0ef          	jal	ra,46e <print_str>
D:\42__Project__CREOSS__SW\51__Lambda\CPUFW\21__BIOS\WS\BIOS\Release/../Src/CRT0_LD_TRAP_CSR/CSR/crs32v_csr.c:40
	print_str("MIE       = ");	print_hex(csr_read(mie), 8);		print_str("\n");
    18f8:	810d0537          	lui	a0,0x810d0
    18fc:	2fc50513          	addi	a0,a0,764 # 810d02fc <_ctype_+0xffffffa4>
    1900:	b6ffe0ef          	jal	ra,46e <print_str>
    1904:	30402573          	csrr	a0,mie
    1908:	45a1                	li	a1,8
    190a:	bc1fe0ef          	jal	ra,4ca <print_hex>
    190e:	22040513          	addi	a0,s0,544
    1912:	b5dfe0ef          	jal	ra,46e <print_str>
D:\42__Project__CREOSS__SW\51__Lambda\CPUFW\21__BIOS\WS\BIOS\Release/../Src/CRT0_LD_TRAP_CSR/CSR/crs32v_csr.c:41
	print_str("MIP       = ");	print_hex(csr_read(mip), 8);		print_str("\n");
    1916:	810d0537          	lui	a0,0x810d0
    191a:	30c50513          	addi	a0,a0,780 # 810d030c <_ctype_+0xffffffb4>
    191e:	b51fe0ef          	jal	ra,46e <print_str>
    1922:	34402573          	csrr	a0,mip
    1926:	45a1                	li	a1,8
    1928:	ba3fe0ef          	jal	ra,4ca <print_hex>
    192c:	22040513          	addi	a0,s0,544
D:\42__Project__CREOSS__SW\51__Lambda\CPUFW\21__BIOS\WS\BIOS\Release/../Src/CRT0_LD_TRAP_CSR/CSR/crs32v_csr.c:42
}
    1930:	4422                	lw	s0,8(sp)
    1932:	40b2                	lw	ra,12(sp)
    1934:	0141                	addi	sp,sp,16
D:\42__Project__CREOSS__SW\51__Lambda\CPUFW\21__BIOS\WS\BIOS\Release/../Src/CRT0_LD_TRAP_CSR/CSR/crs32v_csr.c:41
	print_str("MIP       = ");	print_hex(csr_read(mip), 8);		print_str("\n");
    1936:	b39fe06f          	j	46e <print_str>

Disassembly of section .text.csr_int_init_fast_int_vector:

0000193a <csr_int_init_fast_int_vector>:
csr_int_init_fast_int_vector():
D:\42__Project__CREOSS__SW\51__Lambda\CPUFW\21__BIOS\WS\BIOS\Release/../Src/CRT0_LD_TRAP_CSR/CSR/crs32v_csr.c:55
//======================================================================

// fast interrupt
void	csr_int_init_fast_int_vector()
{
	csr_seti(0xBD9, 1);						// mfive
    193a:	bd90e073          	csrsi	0xbd9,1
D:\42__Project__CREOSS__SW\51__Lambda\CPUFW\21__BIOS\WS\BIOS\Release/../Src/CRT0_LD_TRAP_CSR/CSR/crs32v_csr.c:58
	//csr_seti(CSR_mfive, 1);						// mfive

	csr_write(0xBE0, (PM_START_BADR + BADR_CRT_TRAP_IRQ_00));	// mftvec_00
    193e:	0fc00793          	li	a5,252
    1942:	be079073          	csrw	0xbe0,a5
D:\42__Project__CREOSS__SW\51__Lambda\CPUFW\21__BIOS\WS\BIOS\Release/../Src/CRT0_LD_TRAP_CSR/CSR/crs32v_csr.c:59
	csr_write(0xBE1, (PM_START_BADR + BADR_CRT_TRAP_IRQ_01));	// mftvec_01
    1946:	11200793          	li	a5,274
    194a:	be179073          	csrw	0xbe1,a5
D:\42__Project__CREOSS__SW\51__Lambda\CPUFW\21__BIOS\WS\BIOS\Release/../Src/CRT0_LD_TRAP_CSR/CSR/crs32v_csr.c:60
	csr_write(0xBE2, (PM_START_BADR + BADR_CRT_TRAP_IRQ_02));	// mftvec_02
    194e:	12800793          	li	a5,296
    1952:	be279073          	csrw	0xbe2,a5
D:\42__Project__CREOSS__SW\51__Lambda\CPUFW\21__BIOS\WS\BIOS\Release/../Src/CRT0_LD_TRAP_CSR/CSR/crs32v_csr.c:61
	csr_write(0xBE3, (PM_START_BADR + BADR_CRT_TRAP_IRQ_03));	// mftvec_03
    1956:	13e00793          	li	a5,318
    195a:	be379073          	csrw	0xbe3,a5
D:\42__Project__CREOSS__SW\51__Lambda\CPUFW\21__BIOS\WS\BIOS\Release/../Src/CRT0_LD_TRAP_CSR/CSR/crs32v_csr.c:62
	csr_write(0xBE4, (PM_START_BADR + BADR_CRT_TRAP_IRQ_04));	// mftvec_04
    195e:	15400793          	li	a5,340
    1962:	be479073          	csrw	0xbe4,a5
D:\42__Project__CREOSS__SW\51__Lambda\CPUFW\21__BIOS\WS\BIOS\Release/../Src/CRT0_LD_TRAP_CSR/CSR/crs32v_csr.c:63
	csr_write(0xBE5, (PM_START_BADR + BADR_CRT_TRAP_IRQ_05));	// mftvec_05
    1966:	16a00793          	li	a5,362
    196a:	be579073          	csrw	0xbe5,a5
D:\42__Project__CREOSS__SW\51__Lambda\CPUFW\21__BIOS\WS\BIOS\Release/../Src/CRT0_LD_TRAP_CSR/CSR/crs32v_csr.c:64
	csr_write(0xBE6, (PM_START_BADR + BADR_CRT_TRAP_IRQ_06));	// mftvec_06
    196e:	18000793          	li	a5,384
    1972:	be679073          	csrw	0xbe6,a5
D:\42__Project__CREOSS__SW\51__Lambda\CPUFW\21__BIOS\WS\BIOS\Release/../Src/CRT0_LD_TRAP_CSR/CSR/crs32v_csr.c:65
	csr_write(0xBE7, (PM_START_BADR + BADR_CRT_TRAP_IRQ_07));	// mftvec_07
    1976:	19600793          	li	a5,406
    197a:	be779073          	csrw	0xbe7,a5
D:\42__Project__CREOSS__SW\51__Lambda\CPUFW\21__BIOS\WS\BIOS\Release/../Src/CRT0_LD_TRAP_CSR/CSR/crs32v_csr.c:66
	csr_write(0xBE8, (PM_START_BADR + BADR_CRT_TRAP_IRQ_08));	// mftvec_08
    197e:	1ac00793          	li	a5,428
    1982:	be879073          	csrw	0xbe8,a5
D:\42__Project__CREOSS__SW\51__Lambda\CPUFW\21__BIOS\WS\BIOS\Release/../Src/CRT0_LD_TRAP_CSR/CSR/crs32v_csr.c:67
	csr_write(0xBE9, (PM_START_BADR + BADR_CRT_TRAP_IRQ_09));	// mftvec_09
    1986:	1c200793          	li	a5,450
    198a:	be979073          	csrw	0xbe9,a5
D:\42__Project__CREOSS__SW\51__Lambda\CPUFW\21__BIOS\WS\BIOS\Release/../Src/CRT0_LD_TRAP_CSR/CSR/crs32v_csr.c:68
	csr_write(0xBEA, (PM_START_BADR + BADR_CRT_TRAP_IRQ_10));	// mftvec_10
    198e:	1d800793          	li	a5,472
    1992:	bea79073          	csrw	0xbea,a5
D:\42__Project__CREOSS__SW\51__Lambda\CPUFW\21__BIOS\WS\BIOS\Release/../Src/CRT0_LD_TRAP_CSR/CSR/crs32v_csr.c:69
	csr_write(0xBEB, (PM_START_BADR + BADR_CRT_TRAP_IRQ_11));	// mftvec_11
    1996:	1ee00793          	li	a5,494
    199a:	beb79073          	csrw	0xbeb,a5
D:\42__Project__CREOSS__SW\51__Lambda\CPUFW\21__BIOS\WS\BIOS\Release/../Src/CRT0_LD_TRAP_CSR/CSR/crs32v_csr.c:70
	csr_write(0xBEC, (PM_START_BADR + BADR_CRT_TRAP_IRQ_12));	// mftvec_12
    199e:	20400793          	li	a5,516
    19a2:	bec79073          	csrw	0xbec,a5
D:\42__Project__CREOSS__SW\51__Lambda\CPUFW\21__BIOS\WS\BIOS\Release/../Src/CRT0_LD_TRAP_CSR/CSR/crs32v_csr.c:71
	csr_write(0xBED, (PM_START_BADR + BADR_CRT_TRAP_IRQ_13));	// mftvec_13
    19a6:	21a00793          	li	a5,538
    19aa:	bed79073          	csrw	0xbed,a5
D:\42__Project__CREOSS__SW\51__Lambda\CPUFW\21__BIOS\WS\BIOS\Release/../Src/CRT0_LD_TRAP_CSR/CSR/crs32v_csr.c:72
	csr_write(0xBEE, (PM_START_BADR + BADR_CRT_TRAP_IRQ_14));	// mftvec_14
    19ae:	23000793          	li	a5,560
    19b2:	bee79073          	csrw	0xbee,a5
D:\42__Project__CREOSS__SW\51__Lambda\CPUFW\21__BIOS\WS\BIOS\Release/../Src/CRT0_LD_TRAP_CSR/CSR/crs32v_csr.c:73
	csr_write(0xBEF, (PM_START_BADR + BADR_CRT_TRAP_IRQ_15));	// mftvec_15
    19b6:	24600793          	li	a5,582
    19ba:	bef79073          	csrw	0xbef,a5
D:\42__Project__CREOSS__SW\51__Lambda\CPUFW\21__BIOS\WS\BIOS\Release/../Src/CRT0_LD_TRAP_CSR/CSR/crs32v_csr.c:74
}
    19be:	8082                	ret

Disassembly of section .text.csr_exc_init_stack_check:

000019c0 <csr_exc_init_stack_check>:
csr_exc_init_stack_check():
D:\42__Project__CREOSS__SW\51__Lambda\CPUFW\21__BIOS\WS\BIOS\Release/../Src/CRT0_LD_TRAP_CSR/CSR/crs32v_csr.c:86
// exception related
//======================================================================

// stack corruption
void	csr_exc_init_stack_check()
{
    19c0:	1141                	addi	sp,sp,-16
    19c2:	c606                	sw	ra,12(sp)
    19c4:	c422                	sw	s0,8(sp)
D:\42__Project__CREOSS__SW\51__Lambda\CPUFW\21__BIOS\WS\BIOS\Release/../Src/CRT0_LD_TRAP_CSR/CSR/crs32v_csr.c:90
	unsigned long	csr_mstack_ctrl;

	// DM start/end address
	csr_write(0xBC3, DM_START_BADR);
    19c6:	400007b7          	lui	a5,0x40000
    19ca:	bc379073          	csrw	0xbc3,a5
D:\42__Project__CREOSS__SW\51__Lambda\CPUFW\21__BIOS\WS\BIOS\Release/../Src/CRT0_LD_TRAP_CSR/CSR/crs32v_csr.c:91
	csr_write(0xBC4, DM_END_BADR);
    19ce:	400047b7          	lui	a5,0x40004
    19d2:	fff78713          	addi	a4,a5,-1 # 40003fff <_stack_start+0x2803>
    19d6:	bc471073          	csrw	0xbc4,a4
D:\42__Project__CREOSS__SW\51__Lambda\CPUFW\21__BIOS\WS\BIOS\Release/../Src/CRT0_LD_TRAP_CSR/CSR/crs32v_csr.c:94

	// stack start/end address
	csr_write(0xBC1, DM_STACK_START_BADR);
    19da:	40003737          	lui	a4,0x40003
    19de:	bc171073          	csrw	0xbc1,a4
D:\42__Project__CREOSS__SW\51__Lambda\CPUFW\21__BIOS\WS\BIOS\Release/../Src/CRT0_LD_TRAP_CSR/CSR/crs32v_csr.c:95
	csr_write(0xBC2, DM_STACK_END_BADR);
    19e2:	17f1                	addi	a5,a5,-4
    19e4:	bc279073          	csrw	0xbc2,a5
D:\42__Project__CREOSS__SW\51__Lambda\CPUFW\21__BIOS\WS\BIOS\Release/../Src/CRT0_LD_TRAP_CSR/CSR/crs32v_csr.c:98

	// CSR.mstack_ctrl
	csr_mstack_ctrl = csr_read(0xBC0);
    19e8:	bc0027f3          	csrr	a5,0xbc0
D:\42__Project__CREOSS__SW\51__Lambda\CPUFW\21__BIOS\WS\BIOS\Release/../Src/CRT0_LD_TRAP_CSR/CSR/crs32v_csr.c:99
	csr_mstack_ctrl = csr_mstack_ctrl | 0x80;				// corruption check enable
    19ec:	0807e793          	ori	a5,a5,128
D:\42__Project__CREOSS__SW\51__Lambda\CPUFW\21__BIOS\WS\BIOS\Release/../Src/CRT0_LD_TRAP_CSR/CSR/crs32v_csr.c:100
	csr_write(0xBC0, csr_mstack_ctrl);
    19f0:	bc079073          	csrw	0xbc0,a5
D:\42__Project__CREOSS__SW\51__Lambda\CPUFW\21__BIOS\WS\BIOS\Release/../Src/CRT0_LD_TRAP_CSR/CSR/crs32v_csr.c:103

	#ifndef	BUILD4SIM
		print_str("CSR.mstack_ctrl = ");	print_hex(csr_read(0xBC0), 8);			print_str("\n");
    19f4:	810d0537          	lui	a0,0x810d0
    19f8:	31c50513          	addi	a0,a0,796 # 810d031c <_ctype_+0xffffffc4>
    19fc:	a73fe0ef          	jal	ra,46e <print_str>
    1a00:	bc002573          	csrr	a0,0xbc0
    1a04:	45a1                	li	a1,8
    1a06:	ac5fe0ef          	jal	ra,4ca <print_hex>
    1a0a:	810d0437          	lui	s0,0x810d0
    1a0e:	22040513          	addi	a0,s0,544 # 810d0220 <_ctype_+0xfffffec8>
    1a12:	a5dfe0ef          	jal	ra,46e <print_str>
D:\42__Project__CREOSS__SW\51__Lambda\CPUFW\21__BIOS\WS\BIOS\Release/../Src/CRT0_LD_TRAP_CSR/CSR/crs32v_csr.c:104
		print_str("CSR.mstack_sbadr = ");	print_hex(csr_read(0xBC1), 8);			print_str("\n");
    1a16:	810d0537          	lui	a0,0x810d0
    1a1a:	33050513          	addi	a0,a0,816 # 810d0330 <_ctype_+0xffffffd8>
    1a1e:	a51fe0ef          	jal	ra,46e <print_str>
    1a22:	bc102573          	csrr	a0,0xbc1
    1a26:	45a1                	li	a1,8
    1a28:	aa3fe0ef          	jal	ra,4ca <print_hex>
    1a2c:	22040513          	addi	a0,s0,544
    1a30:	a3ffe0ef          	jal	ra,46e <print_str>
D:\42__Project__CREOSS__SW\51__Lambda\CPUFW\21__BIOS\WS\BIOS\Release/../Src/CRT0_LD_TRAP_CSR/CSR/crs32v_csr.c:105
		print_str("CSR.mstack_ebadr = ");	print_hex(csr_read(0xBC2), 8);			print_str("\n");
    1a34:	810d0537          	lui	a0,0x810d0
    1a38:	34450513          	addi	a0,a0,836 # 810d0344 <_ctype_+0xffffffec>
    1a3c:	a33fe0ef          	jal	ra,46e <print_str>
    1a40:	bc202573          	csrr	a0,0xbc2
    1a44:	45a1                	li	a1,8
    1a46:	a85fe0ef          	jal	ra,4ca <print_hex>
    1a4a:	22040513          	addi	a0,s0,544
D:\42__Project__CREOSS__SW\51__Lambda\CPUFW\21__BIOS\WS\BIOS\Release/../Src/CRT0_LD_TRAP_CSR/CSR/crs32v_csr.c:107
	#endif
}
    1a4e:	4422                	lw	s0,8(sp)
    1a50:	40b2                	lw	ra,12(sp)
    1a52:	0141                	addi	sp,sp,16
D:\42__Project__CREOSS__SW\51__Lambda\CPUFW\21__BIOS\WS\BIOS\Release/../Src/CRT0_LD_TRAP_CSR/CSR/crs32v_csr.c:105
		print_str("CSR.mstack_ebadr = ");	print_hex(csr_read(0xBC2), 8);			print_str("\n");
    1a54:	a1bfe06f          	j	46e <print_str>

Disassembly of section .text.bu_fwld:

00001a58 <bu_fwld>:
bu_fwld():
D:\42__Project__CREOSS__SW\51__Lambda\CPUFW\21__BIOS\WS\BIOS\Release/../Src/bios_bu.c:36
 * @bug	
 * @todo	
 * @warning	
 * @see	
*///----------------------------------------------------------------------------------------------------------------------
__att_noinline__	enum enum_res_ret	bu_fwld ( uint8_t  ld_opt, uint32_t ld_ef_badd ) {
    1a58:	715d                	addi	sp,sp,-80
    1a5a:	c4a2                	sw	s0,72(sp)
    1a5c:	c2a6                	sw	s1,68(sp)
    1a5e:	dc52                	sw	s4,56(sp)
    1a60:	40001437          	lui	s0,0x40001
    1a64:	c686                	sw	ra,76(sp)
    1a66:	c0ca                	sw	s2,64(sp)
    1a68:	de4e                	sw	s3,60(sp)
    1a6a:	da56                	sw	s5,52(sp)
    1a6c:	d85a                	sw	s6,48(sp)
    1a6e:	d65e                	sw	s7,44(sp)
    1a70:	d462                	sw	s8,40(sp)
    1a72:	d266                	sw	s9,36(sp)
    1a74:	d06a                	sw	s10,32(sp)
    1a76:	ce6e                	sw	s11,28(sp)
D:\42__Project__CREOSS__SW\51__Lambda\CPUFW\21__BIOS\WS\BIOS\Release/../Src/bios_bu.c:76


	smonl ( st16[0], 0x1000 );


	if (ld_opt==FW_SECT_FWINFO_USERSET) {
    1a78:	4789                	li	a5,2
D:\42__Project__CREOSS__SW\51__Lambda\CPUFW\21__BIOS\WS\BIOS\Release/../Src/bios_bu.c:36
__att_noinline__	enum enum_res_ret	bu_fwld ( uint8_t  ld_opt, uint32_t ld_ef_badd ) {
    1a7a:	84ae                	mv	s1,a1
D:\42__Project__CREOSS__SW\51__Lambda\CPUFW\21__BIOS\WS\BIOS\Release/../Src/bios_bu.c:76
	if (ld_opt==FW_SECT_FWINFO_USERSET) {
    1a7c:	40001a37          	lui	s4,0x40001
    1a80:	00040413          	mv	s0,s0
    1a84:	0af50663          	beq	a0,a5,1b30 <bu_fwld+0xd8>
D:\42__Project__CREOSS__SW\51__Lambda\CPUFW\21__BIOS\WS\BIOS\Release/../Src/bios_bu.c:185
			}

				smonl ( st16[0], 0x2800 );

			//--	FW_0 ID
			if ( gss.buf32[16]==0x5E1D00F0 ) {
    1a88:	5e1d0c37          	lui	s8,0x5e1d0
D:\42__Project__CREOSS__SW\51__Lambda\CPUFW\21__BIOS\WS\BIOS\Release/../Src/bios_bu.c:133
				| (gss.buf32[1]==0x5E1D0010) ) {
    1a8c:	a1e30cb7          	lui	s9,0xa1e30
    1a90:	8aaa                	mv	s5,a0
    1a92:	4ba9                	li	s7,10
D:\42__Project__CREOSS__SW\51__Lambda\CPUFW\21__BIOS\WS\BIOS\Release/../Src/bios_bu.c:168
			ef_read ( badd_syscfg + 32, nbyte, (uint8_t*) &gss.buf8[32] );
    1a94:	40001db7          	lui	s11,0x40001
D:\42__Project__CREOSS__SW\51__Lambda\CPUFW\21__BIOS\WS\BIOS\Release/../Src/bios_bu.c:185
			if ( gss.buf32[16]==0x5E1D00F0 ) {
    1a98:	0f0c0c13          	addi	s8,s8,240 # 5e1d00f0 <_stack_start+0x1e1ce8f4>
D:\42__Project__CREOSS__SW\51__Lambda\CPUFW\21__BIOS\WS\BIOS\Release/../Src/bios_bu.c:133
				| (gss.buf32[1]==0x5E1D0010) ) {
    1a9c:	1cc1                	addi	s9,s9,-16
    1a9e:	dfde0b37          	lui	s6,0xdfde0
D:\42__Project__CREOSS__SW\51__Lambda\CPUFW\21__BIOS\WS\BIOS\Release/../Src/bios_bu.c:96
		for ( n=0; n<3 ; n++ ) {
    1aa2:	4901                	li	s2,0
D:\42__Project__CREOSS__SW\51__Lambda\CPUFW\21__BIOS\WS\BIOS\Release/../Src/bios_bu.c:113
			} else if ( ld_opt == FW_SECT_SYSCFG_USERSET ) {
    1aa4:	4d05                	li	s10,1
D:\42__Project__CREOSS__SW\51__Lambda\CPUFW\21__BIOS\WS\BIOS\Release/../Src/bios_bu.c:133
				| (gss.buf32[1]==0x5E1D0010) ) {
    1aa6:	effb0b13          	addi	s6,s6,-257 # dfddfeff <_ctype_+0x5ed0fba7>
D:\42__Project__CREOSS__SW\51__Lambda\CPUFW\21__BIOS\WS\BIOS\Release/../Src/bios_bu.c:105
			if ( ld_opt == FW_SECT_SYSCFG_SEARCH ) {
    1aaa:	0c0a9063          	bnez	s5,1b6a <bu_fwld+0x112>
D:\42__Project__CREOSS__SW\51__Lambda\CPUFW\21__BIOS\WS\BIOS\Release/../Src/bios_bu.c:109
				if	(n==0)	badd_syscfg_search = ( 128 - 4 ) * 1024;
    1aae:	69fd                	lui	s3,0x1f
    1ab0:	00090863          	beqz	s2,1ac0 <bu_fwld+0x68>
D:\42__Project__CREOSS__SW\51__Lambda\CPUFW\21__BIOS\WS\BIOS\Release/../Src/bios_bu.c:111
				if	(n==2)	badd_syscfg_search = ( 512 - 4 ) * 1024;
    1ab4:	0007f9b7          	lui	s3,0x7f
D:\42__Project__CREOSS__SW\51__Lambda\CPUFW\21__BIOS\WS\BIOS\Release/../Src/bios_bu.c:110
				if	(n==1)	badd_syscfg_search = ( 256 - 4 ) * 1024;
    1ab8:	01a91463          	bne	s2,s10,1ac0 <bu_fwld+0x68>
    1abc:	0003f9b7          	lui	s3,0x3f
D:\42__Project__CREOSS__SW\51__Lambda\CPUFW\21__BIOS\WS\BIOS\Release/../Src/bios_bu.c:127
			ef_read ( badd_syscfg_search,  32, (uint8_t*) &(gss.buf8[0]) );
    1ac0:	020a0613          	addi	a2,s4,32 # 40001020 <gss+0x20>
    1ac4:	02000593          	li	a1,32
    1ac8:	854e                	mv	a0,s3
    1aca:	3269                	jal	1454 <ef_read>
D:\42__Project__CREOSS__SW\51__Lambda\CPUFW\21__BIOS\WS\BIOS\Release/../Src/bios_bu.c:132
			if (	  (gss.buf32[0]==0x20220101)
    1acc:	24442783          	lw	a5,580(s0) # 40001244 <gss+0x244>
D:\42__Project__CREOSS__SW\51__Lambda\CPUFW\21__BIOS\WS\BIOS\Release/../Src/bios_bu.c:133
				| (gss.buf32[1]==0x5E1D0010) ) {
    1ad0:	24442703          	lw	a4,580(s0)
    1ad4:	439c                	lw	a5,0(a5)
    1ad6:	97da                	add	a5,a5,s6
D:\42__Project__CREOSS__SW\51__Lambda\CPUFW\21__BIOS\WS\BIOS\Release/../Src/bios_bu.c:132
			if (	  (gss.buf32[0]==0x20220101)
    1ad8:	c781                	beqz	a5,1ae0 <bu_fwld+0x88>
D:\42__Project__CREOSS__SW\51__Lambda\CPUFW\21__BIOS\WS\BIOS\Release/../Src/bios_bu.c:133
				| (gss.buf32[1]==0x5E1D0010) ) {
    1ada:	435c                	lw	a5,4(a4)
    1adc:	97e6                	add	a5,a5,s9
D:\42__Project__CREOSS__SW\51__Lambda\CPUFW\21__BIOS\WS\BIOS\Release/../Src/bios_bu.c:132
			if (	  (gss.buf32[0]==0x20220101)
    1ade:	ebd1                	bnez	a5,1b72 <bu_fwld+0x11a>
D:\42__Project__CREOSS__SW\51__Lambda\CPUFW\21__BIOS\WS\BIOS\Release/../Src/bios_bu.c:146
			nbyte = gss.buf32[4];		// nbyte of TABLE_SYSCFG, Word[0x08] ~ nbyte
    1ae0:	24442783          	lw	a5,580(s0)
    1ae4:	4b8c                	lw	a1,16(a5)
D:\42__Project__CREOSS__SW\51__Lambda\CPUFW\21__BIOS\WS\BIOS\Release/../Src/bios_bu.c:147
			crc   = gss.buf32[5];
    1ae6:	24442783          	lw	a5,580(s0)
D:\42__Project__CREOSS__SW\51__Lambda\CPUFW\21__BIOS\WS\BIOS\Release/../Src/bios_bu.c:153
			if (nbyte>256) {
    1aea:	10000793          	li	a5,256
    1aee:	08b7e963          	bltu	a5,a1,1b80 <bu_fwld+0x128>
D:\42__Project__CREOSS__SW\51__Lambda\CPUFW\21__BIOS\WS\BIOS\Release/../Src/bios_bu.c:168
			ef_read ( badd_syscfg + 32, nbyte, (uint8_t*) &gss.buf8[32] );
    1af2:	040d8613          	addi	a2,s11,64 # 40001040 <gss+0x40>
    1af6:	02098513          	addi	a0,s3,32 # 3f020 <strnlen+0x3c98c>
    1afa:	3aa9                	jal	1454 <ef_read>
D:\42__Project__CREOSS__SW\51__Lambda\CPUFW\21__BIOS\WS\BIOS\Release/../Src/bios_bu.c:177
			if (gss.buf32[8]!=0xFFFFFFFF) {
    1afc:	24442783          	lw	a5,580(s0)
    1b00:	5398                	lw	a4,32(a5)
    1b02:	57fd                	li	a5,-1
    1b04:	00f70763          	beq	a4,a5,1b12 <bu_fwld+0xba>
D:\42__Project__CREOSS__SW\51__Lambda\CPUFW\21__BIOS\WS\BIOS\Release/../Src/bios_bu.c:179
				gss.freq_ohf = gss.buf32[8];
    1b08:	24442783          	lw	a5,580(s0)
    1b0c:	539c                	lw	a5,32(a5)
    1b0e:	24f42423          	sw	a5,584(s0)
D:\42__Project__CREOSS__SW\51__Lambda\CPUFW\21__BIOS\WS\BIOS\Release/../Src/bios_bu.c:185
			if ( gss.buf32[16]==0x5E1D00F0 ) {
    1b12:	24442783          	lw	a5,580(s0)
    1b16:	43bc                	lw	a5,64(a5)
    1b18:	05879d63          	bne	a5,s8,1b72 <bu_fwld+0x11a>
D:\42__Project__CREOSS__SW\51__Lambda\CPUFW\21__BIOS\WS\BIOS\Release/../Src/bios_bu.c:187
				smonl ( st16[0], 0x2810 );
				if ( gss.buf32[17]< 1024*1024 ) {
    1b1c:	24442783          	lw	a5,580(s0)
    1b20:	43f8                	lw	a4,68(a5)
    1b22:	001007b7          	lui	a5,0x100
    1b26:	04f77663          	bgeu	a4,a5,1b72 <bu_fwld+0x11a>
D:\42__Project__CREOSS__SW\51__Lambda\CPUFW\21__BIOS\WS\BIOS\Release/../Src/bios_bu.c:189
					smonl ( st16[0], 0x2820 );
					badd_fwinfo	= gss.buf32[17];
    1b2a:	24442783          	lw	a5,580(s0)
    1b2e:	43e4                	lw	s1,68(a5)
D:\42__Project__CREOSS__SW\51__Lambda\CPUFW\21__BIOS\WS\BIOS\Release/../Src/bios_bu.c:229

		smonl ( st16[0], 0x3110 );

		//--	Check Signature
		if (	  (gss.buf32[0]==0x20220101)
			| (gss.buf32[1]==0x5E1D00F0) ) {
    1b30:	dfde09b7          	lui	s3,0xdfde0
    1b34:	a1e30ab7          	lui	s5,0xa1e30
D:\42__Project__CREOSS__SW\51__Lambda\CPUFW\21__BIOS\WS\BIOS\Release/../Src/bios_bu.c:209
LB_READ_FWINFO:
    1b38:	4915                	li	s2,5
D:\42__Project__CREOSS__SW\51__Lambda\CPUFW\21__BIOS\WS\BIOS\Release/../Src/bios_bu.c:229
			| (gss.buf32[1]==0x5E1D00F0) ) {
    1b3a:	eff98993          	addi	s3,s3,-257 # dfddfeff <_ctype_+0x5ed0fba7>
    1b3e:	f10a8a93          	addi	s5,s5,-240 # a1e2ff10 <_ctype_+0x20d5fbb8>
D:\42__Project__CREOSS__SW\51__Lambda\CPUFW\21__BIOS\WS\BIOS\Release/../Src/bios_bu.c:223
		ef_read ( badd_fwinfo, 32, (uint8_t*) gss.buf8) ;
    1b42:	020a0613          	addi	a2,s4,32
    1b46:	02000593          	li	a1,32
    1b4a:	8526                	mv	a0,s1
    1b4c:	3221                	jal	1454 <ef_read>
D:\42__Project__CREOSS__SW\51__Lambda\CPUFW\21__BIOS\WS\BIOS\Release/../Src/bios_bu.c:228
		if (	  (gss.buf32[0]==0x20220101)
    1b4e:	24442783          	lw	a5,580(s0)
D:\42__Project__CREOSS__SW\51__Lambda\CPUFW\21__BIOS\WS\BIOS\Release/../Src/bios_bu.c:229
			| (gss.buf32[1]==0x5E1D00F0) ) {
    1b52:	24442703          	lw	a4,580(s0)
    1b56:	439c                	lw	a5,0(a5)
    1b58:	97ce                	add	a5,a5,s3
D:\42__Project__CREOSS__SW\51__Lambda\CPUFW\21__BIOS\WS\BIOS\Release/../Src/bios_bu.c:228
		if (	  (gss.buf32[0]==0x20220101)
    1b5a:	c78d                	beqz	a5,1b84 <bu_fwld+0x12c>
D:\42__Project__CREOSS__SW\51__Lambda\CPUFW\21__BIOS\WS\BIOS\Release/../Src/bios_bu.c:229
			| (gss.buf32[1]==0x5E1D00F0) ) {
    1b5c:	435c                	lw	a5,4(a4)
    1b5e:	97d6                	add	a5,a5,s5
D:\42__Project__CREOSS__SW\51__Lambda\CPUFW\21__BIOS\WS\BIOS\Release/../Src/bios_bu.c:228
		if (	  (gss.buf32[0]==0x20220101)
    1b60:	c395                	beqz	a5,1b84 <bu_fwld+0x12c>
D:\42__Project__CREOSS__SW\51__Lambda\CPUFW\21__BIOS\WS\BIOS\Release/../Src/bios_bu.c:215
	for (nrpt=0 ; nrpt<5; nrpt ++ ) {
    1b62:	197d                	addi	s2,s2,-1
    1b64:	00090e63          	beqz	s2,1b80 <bu_fwld+0x128>
    1b68:	bfe9                	j	1b42 <bu_fwld+0xea>
D:\42__Project__CREOSS__SW\51__Lambda\CPUFW\21__BIOS\WS\BIOS\Release/../Src/bios_bu.c:113
			} else if ( ld_opt == FW_SECT_SYSCFG_USERSET ) {
    1b6a:	f5aa9be3          	bne	s5,s10,1ac0 <bu_fwld+0x68>
D:\42__Project__CREOSS__SW\51__Lambda\CPUFW\21__BIOS\WS\BIOS\Release/../Src/bios_bu.c:117
				badd_syscfg_search = ld_ef_badd;
    1b6e:	89a6                	mv	s3,s1
    1b70:	bf81                	j	1ac0 <bu_fwld+0x68>
D:\42__Project__CREOSS__SW\51__Lambda\CPUFW\21__BIOS\WS\BIOS\Release/../Src/bios_bu.c:96
		for ( n=0; n<3 ; n++ ) {
    1b72:	0905                	addi	s2,s2,1
    1b74:	478d                	li	a5,3
    1b76:	f2f91ae3          	bne	s2,a5,1aaa <bu_fwld+0x52>
D:\42__Project__CREOSS__SW\51__Lambda\CPUFW\21__BIOS\WS\BIOS\Release/../Src/bios_bu.c:89 (discriminator 2)
	for ( nrpt=0; nrpt<10; nrpt++ ) {
    1b7a:	1bfd                	addi	s7,s7,-1
    1b7c:	f20b91e3          	bnez	s7,1a9e <bu_fwld+0x46>
D:\42__Project__CREOSS__SW\51__Lambda\CPUFW\21__BIOS\WS\BIOS\Release/../Src/bios_bu.c:445
	if ( fail_code == FAIL_NONE ) {
		smonl ( st16[0], 0x5010 );
		return	RES_OK;
	} else {
		smonl ( st16[0], 0x5020 );
		return	RES_FAIL;
    1b80:	4505                	li	a0,1
    1b82:	a219                	j	1c88 <bu_fwld+0x230>
D:\42__Project__CREOSS__SW\51__Lambda\CPUFW\21__BIOS\WS\BIOS\Release/../Src/bios_bu.c:240
		nbyte = gss.buf32[4];		// nByte of FWINFO  Word [0x08] ~ nbyte
    1b84:	24442783          	lw	a5,580(s0)
    1b88:	4b8c                	lw	a1,16(a5)
D:\42__Project__CREOSS__SW\51__Lambda\CPUFW\21__BIOS\WS\BIOS\Release/../Src/bios_bu.c:241
		crc   = gss.buf32[5];
    1b8a:	24442783          	lw	a5,580(s0)
D:\42__Project__CREOSS__SW\51__Lambda\CPUFW\21__BIOS\WS\BIOS\Release/../Src/bios_bu.c:245
		if (nbyte>1024) {
    1b8e:	40000793          	li	a5,1024
    1b92:	feb7e7e3          	bltu	a5,a1,1b80 <bu_fwld+0x128>
D:\42__Project__CREOSS__SW\51__Lambda\CPUFW\21__BIOS\WS\BIOS\Release/../Src/bios_bu.c:254
		ef_read ( badd_fwinfo + 32, nbyte, (uint8_t*) &gss.buf8[32] );
    1b96:	40001637          	lui	a2,0x40001
    1b9a:	04060613          	addi	a2,a2,64 # 40001040 <gss+0x40>
    1b9e:	02048513          	addi	a0,s1,32 # ffff8020 <_ctype_+0x7ef27cc8>
    1ba2:	384d                	jal	1454 <ef_read>
D:\42__Project__CREOSS__SW\51__Lambda\CPUFW\21__BIOS\WS\BIOS\Release/../Src/bios_bu.c:263
		if ( (gss.buf32[0x20]==0xFFFFFFFF) ) {
    1ba4:	24442783          	lw	a5,580(s0)
    1ba8:	0807a703          	lw	a4,128(a5) # 100080 <strnlen+0xfd9ec>
    1bac:	57fd                	li	a5,-1
    1bae:	00f70963          	beq	a4,a5,1bc0 <bu_fwld+0x168>
D:\42__Project__CREOSS__SW\51__Lambda\CPUFW\21__BIOS\WS\BIOS\Release/../Src/bios_bu.c:267
			sSPIM.clk_div = gss.buf32[0x20];
    1bb2:	24442783          	lw	a5,580(s0)
    1bb6:	0807a703          	lw	a4,128(a5)
    1bba:	810907b7          	lui	a5,0x81090
    1bbe:	d398                	sw	a4,32(a5)
D:\42__Project__CREOSS__SW\51__Lambda\CPUFW\21__BIOS\WS\BIOS\Release/../Src/bios_bu.c:273
		if (	  ( gss.buf32[0x24] == 0xFFFFFFFF ) 
    1bc0:	24442783          	lw	a5,580(s0)
D:\42__Project__CREOSS__SW\51__Lambda\CPUFW\21__BIOS\WS\BIOS\Release/../Src/bios_bu.c:274
			| ( gss.buf32[0x24] >  128 )  ) {
    1bc4:	24442703          	lw	a4,580(s0)
    1bc8:	0907a783          	lw	a5,144(a5) # 81090090 <_ctype_+0xfffbfd38>
    1bcc:	0785                	addi	a5,a5,1
D:\42__Project__CREOSS__SW\51__Lambda\CPUFW\21__BIOS\WS\BIOS\Release/../Src/bios_bu.c:273
		if (	  ( gss.buf32[0x24] == 0xFFFFFFFF ) 
    1bce:	c791                	beqz	a5,1bda <bu_fwld+0x182>
D:\42__Project__CREOSS__SW\51__Lambda\CPUFW\21__BIOS\WS\BIOS\Release/../Src/bios_bu.c:274
			| ( gss.buf32[0x24] >  128 )  ) {
    1bd0:	09072783          	lw	a5,144(a4) # 40003090 <_stack_start+0x1894>
    1bd4:	0817b793          	sltiu	a5,a5,129
D:\42__Project__CREOSS__SW\51__Lambda\CPUFW\21__BIOS\WS\BIOS\Release/../Src/bios_bu.c:273
		if (	  ( gss.buf32[0x24] == 0xFFFFFFFF ) 
    1bd8:	e7f9                	bnez	a5,1ca6 <bu_fwld+0x24e>
D:\42__Project__CREOSS__SW\51__Lambda\CPUFW\21__BIOS\WS\BIOS\Release/../Src/bios_bu.c:291
		badd_fw_pm  = gss.buf32[0x10];
    1bda:	20040793          	addi	a5,s0,512
    1bde:	43f8                	lw	a4,68(a5)
D:\42__Project__CREOSS__SW\51__Lambda\CPUFW\21__BIOS\WS\BIOS\Release/../Src/bios_bu.c:322
	for ( nrpt=0 ; nrpt<2 ; nrpt++ ) {
    1be0:	4b81                	li	s7,0
D:\42__Project__CREOSS__SW\51__Lambda\CPUFW\21__BIOS\WS\BIOS\Release/../Src/bios_bu.c:356
		mem8_fwld_tgt	= (uint8_t  *) badd_tgt;	// host read data port, argument
    1be2:	40001b37          	lui	s6,0x40001
D:\42__Project__CREOSS__SW\51__Lambda\CPUFW\21__BIOS\WS\BIOS\Release/../Src/bios_bu.c:291
		badd_fw_pm  = gss.buf32[0x10];
    1be6:	04072d83          	lw	s11,64(a4)
D:\42__Project__CREOSS__SW\51__Lambda\CPUFW\21__BIOS\WS\BIOS\Release/../Src/bios_bu.c:292
		nbyte_fw_pm = gss.buf32[0x11];
    1bea:	43f8                	lw	a4,68(a5)
D:\42__Project__CREOSS__SW\51__Lambda\CPUFW\21__BIOS\WS\BIOS\Release/../Src/bios_bu.c:357
		mem16_fwld_tgt	= (uint16_t *) mem8_fwld_tgt;		
    1bec:	40001337          	lui	t1,0x40001
D:\42__Project__CREOSS__SW\51__Lambda\CPUFW\21__BIOS\WS\BIOS\Release/../Src/bios_bu.c:358
		mem32_fwld_tgt	= (uint32_t *) mem8_fwld_tgt;			
    1bf0:	40001c37          	lui	s8,0x40001
D:\42__Project__CREOSS__SW\51__Lambda\CPUFW\21__BIOS\WS\BIOS\Release/../Src/bios_bu.c:292
		nbyte_fw_pm = gss.buf32[0x11];
    1bf4:	4364                	lw	s1,68(a4)
D:\42__Project__CREOSS__SW\51__Lambda\CPUFW\21__BIOS\WS\BIOS\Release/../Src/bios_bu.c:293
		crc_fw_pm   = gss.buf32[0x12];
    1bf6:	43f8                	lw	a4,68(a5)
D:\42__Project__CREOSS__SW\51__Lambda\CPUFW\21__BIOS\WS\BIOS\Release/../Src/bios_bu.c:295
		badd_fw_dm  = gss.buf32[0x14];
    1bf8:	43f8                	lw	a4,68(a5)
D:\42__Project__CREOSS__SW\51__Lambda\CPUFW\21__BIOS\WS\BIOS\Release/../Src/bios_bu.c:363
		sSYSC.ctrl_st = SYSC_SR_PAD1_BY_MB | SYSC_SR_PAD2_BY_MC;
    1bfa:	80100cb7          	lui	s9,0x80100
    1bfe:	4e89                	li	t4,2
D:\42__Project__CREOSS__SW\51__Lambda\CPUFW\21__BIOS\WS\BIOS\Release/../Src/bios_bu.c:295
		badd_fw_dm  = gss.buf32[0x14];
    1c00:	05072803          	lw	a6,80(a4)
D:\42__Project__CREOSS__SW\51__Lambda\CPUFW\21__BIOS\WS\BIOS\Release/../Src/bios_bu.c:296
		nbyte_fw_dm = gss.buf32[0x15];
    1c04:	43f8                	lw	a4,68(a5)
D:\42__Project__CREOSS__SW\51__Lambda\CPUFW\21__BIOS\WS\BIOS\Release/../Src/bios_bu.c:297
		crc_fw_dm   = gss.buf32[0x16];
    1c06:	43fc                	lw	a5,68(a5)
    1c08:	20000e13          	li	t3,512
D:\42__Project__CREOSS__SW\51__Lambda\CPUFW\21__BIOS\WS\BIOS\Release/../Src/bios_bu.c:296
		nbyte_fw_dm = gss.buf32[0x15];
    1c0c:	05472883          	lw	a7,84(a4)
D:\42__Project__CREOSS__SW\51__Lambda\CPUFW\21__BIOS\WS\BIOS\Release/../Src/bios_bu.c:330
			badd_tgt = 0x60000000;    		// MB or PB
    1c10:	600007b7          	lui	a5,0x60000
D:\42__Project__CREOSS__SW\51__Lambda\CPUFW\21__BIOS\WS\BIOS\Release/../Src/bios_bu.c:368
		for ( n=0 ; n<1024 ; n++ ) {
    1c14:	40000d13          	li	s10,1024
D:\42__Project__CREOSS__SW\51__Lambda\CPUFW\21__BIOS\WS\BIOS\Release/../Src/bios_bu.c:356
		mem8_fwld_tgt	= (uint8_t  *) badd_tgt;	// host read data port, argument
    1c18:	28fb2823          	sw	a5,656(s6) # 40001290 <mem8_fwld_tgt>
D:\42__Project__CREOSS__SW\51__Lambda\CPUFW\21__BIOS\WS\BIOS\Release/../Src/bios_bu.c:357
		mem16_fwld_tgt	= (uint16_t *) mem8_fwld_tgt;		
    1c1c:	290b2783          	lw	a5,656(s6)
D:\42__Project__CREOSS__SW\51__Lambda\CPUFW\21__BIOS\WS\BIOS\Release/../Src/bios_bu.c:368
		for ( n=0 ; n<1024 ; n++ ) {
    1c20:	4981                	li	s3,0
D:\42__Project__CREOSS__SW\51__Lambda\CPUFW\21__BIOS\WS\BIOS\Release/../Src/bios_bu.c:357
		mem16_fwld_tgt	= (uint16_t *) mem8_fwld_tgt;		
    1c22:	28f32423          	sw	a5,648(t1) # 40001288 <mem16_fwld_tgt>
D:\42__Project__CREOSS__SW\51__Lambda\CPUFW\21__BIOS\WS\BIOS\Release/../Src/bios_bu.c:358
		mem32_fwld_tgt	= (uint32_t *) mem8_fwld_tgt;			
    1c26:	290b2783          	lw	a5,656(s6)
    1c2a:	28fc2623          	sw	a5,652(s8) # 4000128c <mem32_fwld_tgt>
D:\42__Project__CREOSS__SW\51__Lambda\CPUFW\21__BIOS\WS\BIOS\Release/../Src/bios_bu.c:363
		sSYSC.ctrl_st = SYSC_SR_PAD1_BY_MB | SYSC_SR_PAD2_BY_MC;
    1c2e:	01dca823          	sw	t4,16(s9) # 80100010 <_ctype_+0xff02fcb8>
D:\42__Project__CREOSS__SW\51__Lambda\CPUFW\21__BIOS\WS\BIOS\Release/../Src/bios_bu.c:374
			if	( nb_rm>=NB_FW_READ )	nb_cr = NB_FW_READ;
    1c32:	8aa6                	mv	s5,s1
    1c34:	009e7463          	bgeu	t3,s1,1c3c <bu_fwld+0x1e4>
    1c38:	20000a93          	li	s5,512
    1c3c:	00999913          	slli	s2,s3,0x9
D:\42__Project__CREOSS__SW\51__Lambda\CPUFW\21__BIOS\WS\BIOS\Release/../Src/bios_bu.c:383
			ef_read ( badd_ef + n*NB_FW_READ, nb_cr, (uint8_t*) &gss.buf8[0] );
    1c40:	020a0613          	addi	a2,s4,32
    1c44:	85d6                	mv	a1,s5
    1c46:	012d8533          	add	a0,s11,s2
    1c4a:	c646                	sw	a7,12(sp)
    1c4c:	c442                	sw	a6,8(sp)
    1c4e:	807ff0ef          	jal	ra,1454 <ef_read>
D:\42__Project__CREOSS__SW\51__Lambda\CPUFW\21__BIOS\WS\BIOS\Release/../Src/bios_bu.c:388
			for ( m=0 ; m<nb_cr/4 ; m++ ) {
    1c52:	4822                	lw	a6,8(sp)
    1c54:	48b2                	lw	a7,12(sp)
    1c56:	ffcaf613          	andi	a2,s5,-4
    1c5a:	4781                	li	a5,0
    1c5c:	40001337          	lui	t1,0x40001
    1c60:	20000e13          	li	t3,512
    1c64:	4e89                	li	t4,2
D:\42__Project__CREOSS__SW\51__Lambda\CPUFW\21__BIOS\WS\BIOS\Release/../Src/bios_bu.c:388 (discriminator 1)
    1c66:	06c79a63          	bne	a5,a2,1cda <bu_fwld+0x282>
D:\42__Project__CREOSS__SW\51__Lambda\CPUFW\21__BIOS\WS\BIOS\Release/../Src/bios_bu.c:405
			nb_rm = nb_rm - nb_cr;
    1c6a:	415484b3          	sub	s1,s1,s5
D:\42__Project__CREOSS__SW\51__Lambda\CPUFW\21__BIOS\WS\BIOS\Release/../Src/bios_bu.c:409
			if (nb_rm==0) {
    1c6e:	c481                	beqz	s1,1c76 <bu_fwld+0x21e>
D:\42__Project__CREOSS__SW\51__Lambda\CPUFW\21__BIOS\WS\BIOS\Release/../Src/bios_bu.c:368 (discriminator 2)
		for ( n=0 ; n<1024 ; n++ ) {
    1c70:	0985                	addi	s3,s3,1
    1c72:	fda990e3          	bne	s3,s10,1c32 <bu_fwld+0x1da>
D:\42__Project__CREOSS__SW\51__Lambda\CPUFW\21__BIOS\WS\BIOS\Release/../Src/bios_bu.c:419
		sSYSC.ctrl_st = SYSC_SR_PAD1_BY_MB | SYSC_SR_PAD2_BY_PC	;
    1c76:	000ca823          	sw	zero,16(s9)
D:\42__Project__CREOSS__SW\51__Lambda\CPUFW\21__BIOS\WS\BIOS\Release/../Src/bios_bu.c:424
		if (n==1024) {
    1c7a:	f1a983e3          	beq	s3,s10,1b80 <bu_fwld+0x128>
D:\42__Project__CREOSS__SW\51__Lambda\CPUFW\21__BIOS\WS\BIOS\Release/../Src/bios_bu.c:322 (discriminator 2)
	for ( nrpt=0 ; nrpt<2 ; nrpt++ ) {
    1c7e:	400007b7          	lui	a5,0x40000
    1c82:	040b8863          	beqz	s7,1cd2 <bu_fwld+0x27a>
D:\42__Project__CREOSS__SW\51__Lambda\CPUFW\21__BIOS\WS\BIOS\Release/../Src/bios_bu.c:442
		return	RES_OK;
    1c86:	4501                	li	a0,0
D:\42__Project__CREOSS__SW\51__Lambda\CPUFW\21__BIOS\WS\BIOS\Release/../Src/bios_bu.c:447
	}
}
    1c88:	40b6                	lw	ra,76(sp)
    1c8a:	4426                	lw	s0,72(sp)
    1c8c:	4496                	lw	s1,68(sp)
    1c8e:	4906                	lw	s2,64(sp)
    1c90:	59f2                	lw	s3,60(sp)
    1c92:	5a62                	lw	s4,56(sp)
    1c94:	5ad2                	lw	s5,52(sp)
    1c96:	5b42                	lw	s6,48(sp)
    1c98:	5bb2                	lw	s7,44(sp)
    1c9a:	5c22                	lw	s8,40(sp)
    1c9c:	5c92                	lw	s9,36(sp)
    1c9e:	5d02                	lw	s10,32(sp)
    1ca0:	4df2                	lw	s11,28(sp)
    1ca2:	6161                	addi	sp,sp,80
    1ca4:	8082                	ret
D:\42__Project__CREOSS__SW\51__Lambda\CPUFW\21__BIOS\WS\BIOS\Release/../Src/bios_bu.c:281
			n_sys_write = gss.buf32[0x24];
    1ca6:	24442683          	lw	a3,580(s0)
D:\42__Project__CREOSS__SW\51__Lambda\CPUFW\21__BIOS\WS\BIOS\Release/../Src/bios_bu.c:283
			for ( n=0 ; n< n_sys_write ; n++ ) {
    1caa:	09c00793          	li	a5,156
    1cae:	4701                	li	a4,0
    1cb0:	0906d583          	lhu	a1,144(a3) # 81090090 <_ctype_+0xfffbfd38>
D:\42__Project__CREOSS__SW\51__Lambda\CPUFW\21__BIOS\WS\BIOS\Release/../Src/bios_bu.c:283 (discriminator 1)
    1cb4:	f2b773e3          	bgeu	a4,a1,1bda <bu_fwld+0x182>
D:\42__Project__CREOSS__SW\51__Lambda\CPUFW\21__BIOS\WS\BIOS\Release/../Src/bios_bu.c:284 (discriminator 3)
				set_mem ( gss.buf32[0x26 + 2*n + 0], gss.buf32[0x26 + 2*n + 1] ); 
    1cb8:	24442683          	lw	a3,580(s0)
    1cbc:	24442603          	lw	a2,580(s0)
D:\42__Project__CREOSS__SW\51__Lambda\CPUFW\21__BIOS\WS\BIOS\Release/../Src/bios_bu.c:283 (discriminator 3)
			for ( n=0 ; n< n_sys_write ; n++ ) {
    1cc0:	0705                	addi	a4,a4,1
D:\42__Project__CREOSS__SW\51__Lambda\CPUFW\21__BIOS\WS\BIOS\Release/../Src/bios_bu.c:284 (discriminator 3)
				set_mem ( gss.buf32[0x26 + 2*n + 0], gss.buf32[0x26 + 2*n + 1] ); 
    1cc2:	96be                	add	a3,a3,a5
    1cc4:	963e                	add	a2,a2,a5
    1cc6:	ffc62603          	lw	a2,-4(a2)
    1cca:	4294                	lw	a3,0(a3)
    1ccc:	07a1                	addi	a5,a5,8
    1cce:	c214                	sw	a3,0(a2)
D:\42__Project__CREOSS__SW\51__Lambda\CPUFW\21__BIOS\WS\BIOS\Release/../Src/bios_bu.c:283 (discriminator 3)
			for ( n=0 ; n< n_sys_write ; n++ ) {
    1cd0:	b7d5                	j	1cb4 <bu_fwld+0x25c>
    1cd2:	4b85                	li	s7,1
    1cd4:	8dc2                	mv	s11,a6
    1cd6:	84c6                	mv	s1,a7
    1cd8:	b781                	j	1c18 <bu_fwld+0x1c0>
D:\42__Project__CREOSS__SW\51__Lambda\CPUFW\21__BIOS\WS\BIOS\Release/../Src/bios_bu.c:395 (discriminator 3)
				mem32_fwld_tgt[n*NB_FW_READ/4 +m] = gss.buf32[m];
    1cda:	24442683          	lw	a3,580(s0)
    1cde:	28cc2703          	lw	a4,652(s8)
    1ce2:	96be                	add	a3,a3,a5
    1ce4:	4294                	lw	a3,0(a3)
    1ce6:	973e                	add	a4,a4,a5
    1ce8:	974a                	add	a4,a4,s2
    1cea:	c314                	sw	a3,0(a4)
D:\42__Project__CREOSS__SW\51__Lambda\CPUFW\21__BIOS\WS\BIOS\Release/../Src/bios_bu.c:388 (discriminator 3)
			for ( m=0 ; m<nb_cr/4 ; m++ ) {
    1cec:	0791                	addi	a5,a5,4
    1cee:	bfa5                	j	1c66 <bu_fwld+0x20e>

Disassembly of section .text.BIOS_HCMD_CLEAR_INT:

00001cf0 <BIOS_HCMD_CLEAR_INT>:
BIOS_HCMD_CLEAR_INT():
D:\42__Project__CREOSS__SW\51__Lambda\CPUFW\21__BIOS\WS\BIOS\Release/../Src/bios_hcmd.c:36
 * @warning	
 * @see	
*///----------------------------------------------------------------------------------------------------------------------
__att_noinline__	void	BIOS_HCMD_CLEAR_INT ( ) {

	if	( harg< 0x0010)	{ gss.mode_hintn=MODE_HINTN_OD;		set_hintn(0x1);	}
    1cf0:	400017b7          	lui	a5,0x40001
    1cf4:	24c7d703          	lhu	a4,588(a5) # 4000124c <harg>
    1cf8:	46bd                	li	a3,15
    1cfa:	0742                	slli	a4,a4,0x10
    1cfc:	8341                	srli	a4,a4,0x10
    1cfe:	00e6e763          	bltu	a3,a4,1d0c <BIOS_HCMD_CLEAR_INT+0x1c>
D:\42__Project__CREOSS__SW\51__Lambda\CPUFW\21__BIOS\WS\BIOS\Release/../Src/bios_hcmd.c:42 (discriminator 1)

	else if ( harg==0x0020)	{ 					set_hintn(0x0);	}
	else if ( harg==0x0021)	{ 					set_hintn(0x1);	}

	else if ( harg==0x0100)	{ gss.mode_hintn=MODE_HINTN_OD;		set_hintn(0x0);	}
	else if ( harg==0x0101)	{ gss.mode_hintn=MODE_HINTN_OD;		set_hintn(0x1);	}
    1d02:	400017b7          	lui	a5,0x40001
    1d06:	0007a023          	sw	zero,0(a5) # 40001000 <gss>
    1d0a:	a025                	j	1d32 <BIOS_HCMD_CLEAR_INT+0x42>
D:\42__Project__CREOSS__SW\51__Lambda\CPUFW\21__BIOS\WS\BIOS\Release/../Src/bios_hcmd.c:38
	else if ( harg==0x0020)	{ 					set_hintn(0x0);	}
    1d0c:	24c7d703          	lhu	a4,588(a5)
    1d10:	02000693          	li	a3,32
    1d14:	0742                	slli	a4,a4,0x10
    1d16:	8341                	srli	a4,a4,0x10
    1d18:	00d71563          	bne	a4,a3,1d22 <BIOS_HCMD_CLEAR_INT+0x32>
D:\42__Project__CREOSS__SW\51__Lambda\CPUFW\21__BIOS\WS\BIOS\Release/../Src/bios_hcmd.c:44 (discriminator 1)

	else if ( harg==0x0110)	{ gss.mode_hintn=MODE_HINTN_PP;		set_hintn(0x0);	}
    1d1c:	4501                	li	a0,0
D:\42__Project__CREOSS__SW\51__Lambda\CPUFW\21__BIOS\WS\BIOS\Release/../Src/bios_hcmd.c:45 (discriminator 1)
	else if ( harg==0x0111)	{ gss.mode_hintn=MODE_HINTN_PP;		set_hintn(0x1);	}
    1d1e:	f5dfe06f          	j	c7a <set_hintn>
D:\42__Project__CREOSS__SW\51__Lambda\CPUFW\21__BIOS\WS\BIOS\Release/../Src/bios_hcmd.c:39
	else if ( harg==0x0021)	{ 					set_hintn(0x1);	}
    1d22:	24c7d703          	lhu	a4,588(a5)
    1d26:	02100693          	li	a3,33
    1d2a:	0742                	slli	a4,a4,0x10
    1d2c:	8341                	srli	a4,a4,0x10
    1d2e:	00d71463          	bne	a4,a3,1d36 <BIOS_HCMD_CLEAR_INT+0x46>
D:\42__Project__CREOSS__SW\51__Lambda\CPUFW\21__BIOS\WS\BIOS\Release/../Src/bios_hcmd.c:45 (discriminator 1)
	else if ( harg==0x0111)	{ gss.mode_hintn=MODE_HINTN_PP;		set_hintn(0x1);	}
    1d32:	4505                	li	a0,1
    1d34:	b7ed                	j	1d1e <BIOS_HCMD_CLEAR_INT+0x2e>
D:\42__Project__CREOSS__SW\51__Lambda\CPUFW\21__BIOS\WS\BIOS\Release/../Src/bios_hcmd.c:41
	else if ( harg==0x0100)	{ gss.mode_hintn=MODE_HINTN_OD;		set_hintn(0x0);	}
    1d36:	24c7d703          	lhu	a4,588(a5)
    1d3a:	10000693          	li	a3,256
    1d3e:	0742                	slli	a4,a4,0x10
    1d40:	8341                	srli	a4,a4,0x10
    1d42:	00d71763          	bne	a4,a3,1d50 <BIOS_HCMD_CLEAR_INT+0x60>
D:\42__Project__CREOSS__SW\51__Lambda\CPUFW\21__BIOS\WS\BIOS\Release/../Src/bios_hcmd.c:41 (discriminator 1)
    1d46:	400017b7          	lui	a5,0x40001
    1d4a:	0007a023          	sw	zero,0(a5) # 40001000 <gss>
    1d4e:	b7f9                	j	1d1c <BIOS_HCMD_CLEAR_INT+0x2c>
D:\42__Project__CREOSS__SW\51__Lambda\CPUFW\21__BIOS\WS\BIOS\Release/../Src/bios_hcmd.c:42
	else if ( harg==0x0101)	{ gss.mode_hintn=MODE_HINTN_OD;		set_hintn(0x1);	}
    1d50:	24c7d703          	lhu	a4,588(a5)
    1d54:	10100693          	li	a3,257
    1d58:	0742                	slli	a4,a4,0x10
    1d5a:	8341                	srli	a4,a4,0x10
    1d5c:	fad703e3          	beq	a4,a3,1d02 <BIOS_HCMD_CLEAR_INT+0x12>
D:\42__Project__CREOSS__SW\51__Lambda\CPUFW\21__BIOS\WS\BIOS\Release/../Src/bios_hcmd.c:44
	else if ( harg==0x0110)	{ gss.mode_hintn=MODE_HINTN_PP;		set_hintn(0x0);	}
    1d60:	24c7d703          	lhu	a4,588(a5)
    1d64:	11000693          	li	a3,272
    1d68:	0742                	slli	a4,a4,0x10
    1d6a:	8341                	srli	a4,a4,0x10
    1d6c:	00d71863          	bne	a4,a3,1d7c <BIOS_HCMD_CLEAR_INT+0x8c>
D:\42__Project__CREOSS__SW\51__Lambda\CPUFW\21__BIOS\WS\BIOS\Release/../Src/bios_hcmd.c:44 (discriminator 1)
    1d70:	400017b7          	lui	a5,0x40001
    1d74:	4705                	li	a4,1
    1d76:	00e7a023          	sw	a4,0(a5) # 40001000 <gss>
    1d7a:	b74d                	j	1d1c <BIOS_HCMD_CLEAR_INT+0x2c>
D:\42__Project__CREOSS__SW\51__Lambda\CPUFW\21__BIOS\WS\BIOS\Release/../Src/bios_hcmd.c:45
	else if ( harg==0x0111)	{ gss.mode_hintn=MODE_HINTN_PP;		set_hintn(0x1);	}
    1d7c:	24c7d783          	lhu	a5,588(a5)
    1d80:	11100713          	li	a4,273
    1d84:	07c2                	slli	a5,a5,0x10
    1d86:	83c1                	srli	a5,a5,0x10
    1d88:	00e79863          	bne	a5,a4,1d98 <BIOS_HCMD_CLEAR_INT+0xa8>
D:\42__Project__CREOSS__SW\51__Lambda\CPUFW\21__BIOS\WS\BIOS\Release/../Src/bios_hcmd.c:45 (discriminator 1)
    1d8c:	400017b7          	lui	a5,0x40001
    1d90:	4705                	li	a4,1
    1d92:	00e7a023          	sw	a4,0(a5) # 40001000 <gss>
    1d96:	bf71                	j	1d32 <BIOS_HCMD_CLEAR_INT+0x42>
D:\42__Project__CREOSS__SW\51__Lambda\CPUFW\21__BIOS\WS\BIOS\Release/../Src/bios_hcmd.c:46
}
    1d98:	8082                	ret

Disassembly of section .text.BIOS_HCMD_RUN_CPU:

00001d9a <BIOS_HCMD_RUN_CPU>:
BIOS_HCMD_RUN_CPU():
D:\42__Project__CREOSS__SW\51__Lambda\CPUFW\21__BIOS\WS\BIOS\Release/../Src/bios_hcmd.c:63
 * @bug	
 * @todo	
 * @warning	
 * @see	
*///----------------------------------------------------------------------------------------------------------------------
__att_noinline__	void	BIOS_HCMD_RUN_CPU ( ) {
    1d9a:	1141                	addi	sp,sp,-16
    1d9c:	c422                	sw	s0,8(sp)
D:\42__Project__CREOSS__SW\51__Lambda\CPUFW\21__BIOS\WS\BIOS\Release/../Src/bios_hcmd.c:67

	enum	enum_res_ret		bures_fwld;

	smon ( st16[0], 0x1000 );
    1d9e:	80ff07b7          	lui	a5,0x80ff0
D:\42__Project__CREOSS__SW\51__Lambda\CPUFW\21__BIOS\WS\BIOS\Release/../Src/bios_hcmd.c:63
__att_noinline__	void	BIOS_HCMD_RUN_CPU ( ) {
    1da2:	c606                	sw	ra,12(sp)
D:\42__Project__CREOSS__SW\51__Lambda\CPUFW\21__BIOS\WS\BIOS\Release/../Src/bios_hcmd.c:67
	smon ( st16[0], 0x1000 );
    1da4:	6705                	lui	a4,0x1
    1da6:	00e79023          	sh	a4,0(a5) # 80ff0000 <_ctype_+0xfff1fca8>
D:\42__Project__CREOSS__SW\51__Lambda\CPUFW\21__BIOS\WS\BIOS\Release/../Src/bios_hcmd.c:68
	smon ( d16[0],  hcmd );
    1daa:	40001737          	lui	a4,0x40001
    1dae:	25075703          	lhu	a4,592(a4) # 40001250 <hcmd>
D:\42__Project__CREOSS__SW\51__Lambda\CPUFW\21__BIOS\WS\BIOS\Release/../Src/bios_hcmd.c:69
	smon ( d16[1],  harg );
    1db2:	40001437          	lui	s0,0x40001
D:\42__Project__CREOSS__SW\51__Lambda\CPUFW\21__BIOS\WS\BIOS\Release/../Src/bios_hcmd.c:68
	smon ( d16[0],  hcmd );
    1db6:	0742                	slli	a4,a4,0x10
    1db8:	8341                	srli	a4,a4,0x10
    1dba:	00e79823          	sh	a4,16(a5)
D:\42__Project__CREOSS__SW\51__Lambda\CPUFW\21__BIOS\WS\BIOS\Release/../Src/bios_hcmd.c:69
	smon ( d16[1],  harg );
    1dbe:	24c45703          	lhu	a4,588(s0) # 4000124c <harg>
    1dc2:	0742                	slli	a4,a4,0x10
    1dc4:	8341                	srli	a4,a4,0x10
    1dc6:	00e79923          	sh	a4,18(a5)
D:\42__Project__CREOSS__SW\51__Lambda\CPUFW\21__BIOS\WS\BIOS\Release/../Src/bios_hcmd.c:71

	if (harg==0x0001) {	bures_fwld = bu_fwld ( FW_SECT_SYSCFG_SEARCH, (128-4)*1024   );	}
    1dca:	24c45783          	lhu	a5,588(s0)
    1dce:	4705                	li	a4,1
    1dd0:	07c2                	slli	a5,a5,0x10
    1dd2:	83c1                	srli	a5,a5,0x10
    1dd4:	00e79563          	bne	a5,a4,1dde <BIOS_HCMD_RUN_CPU+0x44>
D:\42__Project__CREOSS__SW\51__Lambda\CPUFW\21__BIOS\WS\BIOS\Release/../Src/bios_hcmd.c:71 (discriminator 1)
    1dd8:	65fd                	lui	a1,0x1f
    1dda:	4501                	li	a0,0
    1ddc:	39b5                	jal	1a58 <bu_fwld>
D:\42__Project__CREOSS__SW\51__Lambda\CPUFW\21__BIOS\WS\BIOS\Release/../Src/bios_hcmd.c:72
	if (harg==0x0002) {	bures_fwld = RES_OK;						}
    1dde:	24c45783          	lhu	a5,588(s0)
    1de2:	4709                	li	a4,2
    1de4:	07c2                	slli	a5,a5,0x10
    1de6:	83c1                	srli	a5,a5,0x10
    1de8:	00e79363          	bne	a5,a4,1dee <BIOS_HCMD_RUN_CPU+0x54>
    1dec:	4501                	li	a0,0
D:\42__Project__CREOSS__SW\51__Lambda\CPUFW\21__BIOS\WS\BIOS\Release/../Src/bios_hcmd.c:73
	if (harg==0x0002) {	bures_fwld = RES_OK;						}
    1dee:	24c45783          	lhu	a5,588(s0)
    1df2:	4709                	li	a4,2
    1df4:	07c2                	slli	a5,a5,0x10
    1df6:	83c1                	srli	a5,a5,0x10
    1df8:	00e79363          	bne	a5,a4,1dfe <BIOS_HCMD_RUN_CPU+0x64>
    1dfc:	4501                	li	a0,0
D:\42__Project__CREOSS__SW\51__Lambda\CPUFW\21__BIOS\WS\BIOS\Release/../Src/bios_hcmd.c:74
	if (harg==0x0010) {	bures_fwld = bu_fwld ( FW_SECT_SYSCFG_USERSET, hwdp32_arg[0] );	}
    1dfe:	24c45783          	lhu	a5,588(s0)
    1e02:	4741                	li	a4,16
    1e04:	07c2                	slli	a5,a5,0x10
    1e06:	83c1                	srli	a5,a5,0x10
    1e08:	00e79963          	bne	a5,a4,1e1a <BIOS_HCMD_RUN_CPU+0x80>
D:\42__Project__CREOSS__SW\51__Lambda\CPUFW\21__BIOS\WS\BIOS\Release/../Src/bios_hcmd.c:74 (discriminator 1)
    1e0c:	400017b7          	lui	a5,0x40001
    1e10:	27c7a783          	lw	a5,636(a5) # 4000127c <hwdp32_arg>
    1e14:	4505                	li	a0,1
    1e16:	438c                	lw	a1,0(a5)
    1e18:	3181                	jal	1a58 <bu_fwld>
D:\42__Project__CREOSS__SW\51__Lambda\CPUFW\21__BIOS\WS\BIOS\Release/../Src/bios_hcmd.c:75
	if (harg==0x0011) {	bures_fwld = bu_fwld ( FW_SECT_FWINFO_USERSET, hwdp32_arg[0] );	}
    1e1a:	24c45783          	lhu	a5,588(s0)
    1e1e:	4745                	li	a4,17
    1e20:	07c2                	slli	a5,a5,0x10
    1e22:	83c1                	srli	a5,a5,0x10
    1e24:	00e79963          	bne	a5,a4,1e36 <BIOS_HCMD_RUN_CPU+0x9c>
D:\42__Project__CREOSS__SW\51__Lambda\CPUFW\21__BIOS\WS\BIOS\Release/../Src/bios_hcmd.c:75 (discriminator 1)
    1e28:	400017b7          	lui	a5,0x40001
    1e2c:	27c7a783          	lw	a5,636(a5) # 4000127c <hwdp32_arg>
    1e30:	4509                	li	a0,2
    1e32:	438c                	lw	a1,0(a5)
    1e34:	3115                	jal	1a58 <bu_fwld>
D:\42__Project__CREOSS__SW\51__Lambda\CPUFW\21__BIOS\WS\BIOS\Release/../Src/bios_hcmd.c:77

	smon ( d16[2],  bures_fwld );
    1e36:	01051713          	slli	a4,a0,0x10
    1e3a:	8341                	srli	a4,a4,0x10
    1e3c:	80ff07b7          	lui	a5,0x80ff0
    1e40:	00e79a23          	sh	a4,20(a5) # 80ff0014 <_ctype_+0xfff1fcbc>
D:\42__Project__CREOSS__SW\51__Lambda\CPUFW\21__BIOS\WS\BIOS\Release/../Src/bios_hcmd.c:79

	if ( bures_fwld==RES_OK ) {
    1e44:	e541                	bnez	a0,1ecc <BIOS_HCMD_RUN_CPU+0x132>
D:\42__Project__CREOSS__SW\51__Lambda\CPUFW\21__BIOS\WS\BIOS\Release/../Src/bios_hcmd.c:81

	if (harg==0x0001) {	jump_to_fw ( 0x00200000 );	}
    1e46:	24c45783          	lhu	a5,588(s0)
    1e4a:	4705                	li	a4,1
    1e4c:	07c2                	slli	a5,a5,0x10
    1e4e:	83c1                	srli	a5,a5,0x10
    1e50:	00e79663          	bne	a5,a4,1e5c <BIOS_HCMD_RUN_CPU+0xc2>
D:\42__Project__CREOSS__SW\51__Lambda\CPUFW\21__BIOS\WS\BIOS\Release/../Src/bios_hcmd.c:81 (discriminator 1)
    1e54:	00200537          	lui	a0,0x200
    1e58:	c6bfe0ef          	jal	ra,ac2 <jump_to_fw>
D:\42__Project__CREOSS__SW\51__Lambda\CPUFW\21__BIOS\WS\BIOS\Release/../Src/bios_hcmd.c:82
	if (harg==0x0002) {	jump_to_fw ( 0x00200000 );	}
    1e5c:	24c45783          	lhu	a5,588(s0)
    1e60:	4709                	li	a4,2
    1e62:	07c2                	slli	a5,a5,0x10
    1e64:	83c1                	srli	a5,a5,0x10
    1e66:	00e79663          	bne	a5,a4,1e72 <BIOS_HCMD_RUN_CPU+0xd8>
D:\42__Project__CREOSS__SW\51__Lambda\CPUFW\21__BIOS\WS\BIOS\Release/../Src/bios_hcmd.c:82 (discriminator 1)
    1e6a:	00200537          	lui	a0,0x200
    1e6e:	c55fe0ef          	jal	ra,ac2 <jump_to_fw>
D:\42__Project__CREOSS__SW\51__Lambda\CPUFW\21__BIOS\WS\BIOS\Release/../Src/bios_hcmd.c:83
	if (harg==0x0003) {	jump_to_fw ( hwdp32_arg[1] );	}
    1e72:	24c45783          	lhu	a5,588(s0)
    1e76:	470d                	li	a4,3
    1e78:	07c2                	slli	a5,a5,0x10
    1e7a:	83c1                	srli	a5,a5,0x10
    1e7c:	00e79963          	bne	a5,a4,1e8e <BIOS_HCMD_RUN_CPU+0xf4>
D:\42__Project__CREOSS__SW\51__Lambda\CPUFW\21__BIOS\WS\BIOS\Release/../Src/bios_hcmd.c:83 (discriminator 1)
    1e80:	400017b7          	lui	a5,0x40001
    1e84:	27c7a783          	lw	a5,636(a5) # 4000127c <hwdp32_arg>
    1e88:	43c8                	lw	a0,4(a5)
    1e8a:	c39fe0ef          	jal	ra,ac2 <jump_to_fw>
D:\42__Project__CREOSS__SW\51__Lambda\CPUFW\21__BIOS\WS\BIOS\Release/../Src/bios_hcmd.c:84
	if (harg==0x0010) {	jump_to_fw ( hwdp32_arg[1] );	}
    1e8e:	24c45783          	lhu	a5,588(s0)
    1e92:	4741                	li	a4,16
    1e94:	07c2                	slli	a5,a5,0x10
    1e96:	83c1                	srli	a5,a5,0x10
    1e98:	00e79963          	bne	a5,a4,1eaa <BIOS_HCMD_RUN_CPU+0x110>
D:\42__Project__CREOSS__SW\51__Lambda\CPUFW\21__BIOS\WS\BIOS\Release/../Src/bios_hcmd.c:84 (discriminator 1)
    1e9c:	400017b7          	lui	a5,0x40001
    1ea0:	27c7a783          	lw	a5,636(a5) # 4000127c <hwdp32_arg>
    1ea4:	43c8                	lw	a0,4(a5)
    1ea6:	c1dfe0ef          	jal	ra,ac2 <jump_to_fw>
D:\42__Project__CREOSS__SW\51__Lambda\CPUFW\21__BIOS\WS\BIOS\Release/../Src/bios_hcmd.c:85
	if (harg==0x0011) {	jump_to_fw ( hwdp32_arg[1] );	}
    1eaa:	24c45783          	lhu	a5,588(s0)
    1eae:	4745                	li	a4,17
    1eb0:	07c2                	slli	a5,a5,0x10
    1eb2:	83c1                	srli	a5,a5,0x10
    1eb4:	00e79c63          	bne	a5,a4,1ecc <BIOS_HCMD_RUN_CPU+0x132>
D:\42__Project__CREOSS__SW\51__Lambda\CPUFW\21__BIOS\WS\BIOS\Release/../Src/bios_hcmd.c:85 (discriminator 1)
    1eb8:	400017b7          	lui	a5,0x40001
    1ebc:	27c7a783          	lw	a5,636(a5) # 4000127c <hwdp32_arg>
D:\42__Project__CREOSS__SW\51__Lambda\CPUFW\21__BIOS\WS\BIOS\Release/../Src/bios_hcmd.c:88 (discriminator 1)

	}
}
    1ec0:	4422                	lw	s0,8(sp)
    1ec2:	40b2                	lw	ra,12(sp)
D:\42__Project__CREOSS__SW\51__Lambda\CPUFW\21__BIOS\WS\BIOS\Release/../Src/bios_hcmd.c:85 (discriminator 1)
	if (harg==0x0011) {	jump_to_fw ( hwdp32_arg[1] );	}
    1ec4:	43c8                	lw	a0,4(a5)
D:\42__Project__CREOSS__SW\51__Lambda\CPUFW\21__BIOS\WS\BIOS\Release/../Src/bios_hcmd.c:88 (discriminator 1)
}
    1ec6:	0141                	addi	sp,sp,16
D:\42__Project__CREOSS__SW\51__Lambda\CPUFW\21__BIOS\WS\BIOS\Release/../Src/bios_hcmd.c:85 (discriminator 1)
	if (harg==0x0011) {	jump_to_fw ( hwdp32_arg[1] );	}
    1ec8:	bfbfe06f          	j	ac2 <jump_to_fw>
D:\42__Project__CREOSS__SW\51__Lambda\CPUFW\21__BIOS\WS\BIOS\Release/../Src/bios_hcmd.c:88
}
    1ecc:	40b2                	lw	ra,12(sp)
    1ece:	4422                	lw	s0,8(sp)
    1ed0:	0141                	addi	sp,sp,16
    1ed2:	8082                	ret

Disassembly of section .text.BIOS_HCMD_ACC_REG:

00001ed4 <BIOS_HCMD_ACC_REG>:
BIOS_HCMD_ACC_REG():
D:\42__Project__CREOSS__SW\51__Lambda\CPUFW\21__BIOS\WS\BIOS\Release/../Src/bios_hcmd.c:107
*///----------------------------------------------------------------------------------------------------------------------
__att_noinline__	void	BIOS_HCMD_ACC_REG ( ) {
	uint32_t	n;	//, z;
	uint32_t	rd;

	sclr ( d16[0],  0 );
    1ed4:	80fe07b7          	lui	a5,0x80fe0
    1ed8:	00079823          	sh	zero,16(a5) # 80fe0010 <_ctype_+0xfff0fcb8>
D:\42__Project__CREOSS__SW\51__Lambda\CPUFW\21__BIOS\WS\BIOS\Release/../Src/bios_hcmd.c:109

	/* W_SINGLE*/	if	(harg==0x0010) { set_mem ( hwdp32_arg[0], hwdp32_arg[1] );		}
    1edc:	400017b7          	lui	a5,0x40001
    1ee0:	24c7d703          	lhu	a4,588(a5) # 4000124c <harg>
    1ee4:	46c1                	li	a3,16
    1ee6:	0742                	slli	a4,a4,0x10
    1ee8:	8341                	srli	a4,a4,0x10
    1eea:	00d71c63          	bne	a4,a3,1f02 <BIOS_HCMD_ACC_REG+0x2e>
D:\42__Project__CREOSS__SW\51__Lambda\CPUFW\21__BIOS\WS\BIOS\Release/../Src/bios_hcmd.c:109 (discriminator 1)
    1eee:	400017b7          	lui	a5,0x40001
    1ef2:	27c7a703          	lw	a4,636(a5) # 4000127c <hwdp32_arg>
    1ef6:	27c7a783          	lw	a5,636(a5)
    1efa:	4358                	lw	a4,4(a4)
    1efc:	439c                	lw	a5,0(a5)
D:\42__Project__CREOSS__SW\51__Lambda\CPUFW\21__BIOS\WS\BIOS\Release/../Src/bios_hcmd.c:110 (discriminator 1)
	/* R_SINGLE*/	else if (harg==0x0011) { rd = get_mem ( hwdp32_arg[0] ); hrdp32_arg[0] = rd; 	}
    1efe:	c398                	sw	a4,0(a5)
    1f00:	8082                	ret
D:\42__Project__CREOSS__SW\51__Lambda\CPUFW\21__BIOS\WS\BIOS\Release/../Src/bios_hcmd.c:110
    1f02:	24c7d703          	lhu	a4,588(a5)
    1f06:	46c5                	li	a3,17
    1f08:	0742                	slli	a4,a4,0x10
    1f0a:	8341                	srli	a4,a4,0x10
    1f0c:	00d71d63          	bne	a4,a3,1f26 <BIOS_HCMD_ACC_REG+0x52>
D:\42__Project__CREOSS__SW\51__Lambda\CPUFW\21__BIOS\WS\BIOS\Release/../Src/bios_hcmd.c:110 (discriminator 1)
    1f10:	400017b7          	lui	a5,0x40001
    1f14:	27c7a783          	lw	a5,636(a5) # 4000127c <hwdp32_arg>
    1f18:	439c                	lw	a5,0(a5)
    1f1a:	4398                	lw	a4,0(a5)
    1f1c:	400017b7          	lui	a5,0x40001
    1f20:	2607a783          	lw	a5,608(a5) # 40001260 <hrdp32_arg>
    1f24:	bfe9                	j	1efe <BIOS_HCMD_ACC_REG+0x2a>
D:\42__Project__CREOSS__SW\51__Lambda\CPUFW\21__BIOS\WS\BIOS\Release/../Src/bios_hcmd.c:112

	/* W_MULTI */	else if (harg==0x0020) { for ( n=0; n<hwdp32_arg[0]/4; n++ ) { set_mem ( hwdp32_arg[2*n+1], hwdp32_arg[2*n+2] );			smon(d32[2],n); smon(d32[3],hwdp32_arg[2*n+1]);             smon(d32[4],hwdp32_arg[2*n+2]);	}	}
    1f26:	24c7d703          	lhu	a4,588(a5)
    1f2a:	02000693          	li	a3,32
    1f2e:	0742                	slli	a4,a4,0x10
    1f30:	8341                	srli	a4,a4,0x10
    1f32:	04d71a63          	bne	a4,a3,1f86 <BIOS_HCMD_ACC_REG+0xb2>
    1f36:	4701                	li	a4,0
    1f38:	400017b7          	lui	a5,0x40001
    1f3c:	80ff0637          	lui	a2,0x80ff0
    1f40:	a825                	j	1f78 <BIOS_HCMD_ACC_REG+0xa4>
D:\42__Project__CREOSS__SW\51__Lambda\CPUFW\21__BIOS\WS\BIOS\Release/../Src/bios_hcmd.c:112 (discriminator 4)
    1f42:	27c7a583          	lw	a1,636(a5) # 4000127c <hwdp32_arg>
    1f46:	00170813          	addi	a6,a4,1
    1f4a:	27c7a503          	lw	a0,636(a5)
    1f4e:	00381693          	slli	a3,a6,0x3
    1f52:	ffc68893          	addi	a7,a3,-4
    1f56:	9546                	add	a0,a0,a7
    1f58:	95b6                	add	a1,a1,a3
    1f5a:	4108                	lw	a0,0(a0)
    1f5c:	418c                	lw	a1,0(a1)
    1f5e:	c10c                	sw	a1,0(a0)
    1f60:	ce38                	sw	a4,88(a2)
    1f62:	27c7a703          	lw	a4,636(a5)
    1f66:	9746                	add	a4,a4,a7
    1f68:	4318                	lw	a4,0(a4)
    1f6a:	ce78                	sw	a4,92(a2)
    1f6c:	27c7a703          	lw	a4,636(a5)
    1f70:	9736                	add	a4,a4,a3
    1f72:	4318                	lw	a4,0(a4)
    1f74:	d238                	sw	a4,96(a2)
    1f76:	8742                	mv	a4,a6
D:\42__Project__CREOSS__SW\51__Lambda\CPUFW\21__BIOS\WS\BIOS\Release/../Src/bios_hcmd.c:112 (discriminator 2)
    1f78:	27c7a683          	lw	a3,636(a5)
    1f7c:	4294                	lw	a3,0(a3)
    1f7e:	8289                	srli	a3,a3,0x2
    1f80:	fcd761e3          	bltu	a4,a3,1f42 <BIOS_HCMD_ACC_REG+0x6e>
    1f84:	8082                	ret
D:\42__Project__CREOSS__SW\51__Lambda\CPUFW\21__BIOS\WS\BIOS\Release/../Src/bios_hcmd.c:113
	/* R_MULTI */	else if (harg==0x0021) { for ( n=0; n<hwdp32_arg[0]/4; n++ ) { hrdp32_arg[n] = get_mem ( hwdp32_arg[ 1 + n ] );				smon(d32[2],n); smon(d32[3],hwdp32_arg[n+1]);               smon(d32[4],hrdp32_arg[n]);	}	}
    1f86:	24c7d703          	lhu	a4,588(a5)
    1f8a:	02100693          	li	a3,33
    1f8e:	0742                	slli	a4,a4,0x10
    1f90:	8341                	srli	a4,a4,0x10
    1f92:	04d71f63          	bne	a4,a3,1ff0 <BIOS_HCMD_ACC_REG+0x11c>
    1f96:	4781                	li	a5,0
    1f98:	400016b7          	lui	a3,0x40001
    1f9c:	40001537          	lui	a0,0x40001
    1fa0:	80ff0637          	lui	a2,0x80ff0
    1fa4:	a83d                	j	1fe2 <BIOS_HCMD_ACC_REG+0x10e>
D:\42__Project__CREOSS__SW\51__Lambda\CPUFW\21__BIOS\WS\BIOS\Release/../Src/bios_hcmd.c:113 (discriminator 4)
    1fa6:	27c6a703          	lw	a4,636(a3) # 4000127c <hwdp32_arg>
    1faa:	00178813          	addi	a6,a5,1
    1fae:	00281593          	slli	a1,a6,0x2
    1fb2:	972e                	add	a4,a4,a1
    1fb4:	00072303          	lw	t1,0(a4)
    1fb8:	26052703          	lw	a4,608(a0) # 40001260 <hrdp32_arg>
    1fbc:	ffc58893          	addi	a7,a1,-4 # 1effc <strnlen+0x1c968>
    1fc0:	00032303          	lw	t1,0(t1) # 40001000 <gss>
    1fc4:	9746                	add	a4,a4,a7
    1fc6:	00672023          	sw	t1,0(a4)
    1fca:	ce3c                	sw	a5,88(a2)
    1fcc:	27c6a703          	lw	a4,636(a3)
    1fd0:	972e                	add	a4,a4,a1
    1fd2:	431c                	lw	a5,0(a4)
    1fd4:	ce7c                	sw	a5,92(a2)
    1fd6:	26052783          	lw	a5,608(a0)
    1fda:	97c6                	add	a5,a5,a7
    1fdc:	439c                	lw	a5,0(a5)
    1fde:	d23c                	sw	a5,96(a2)
    1fe0:	87c2                	mv	a5,a6
D:\42__Project__CREOSS__SW\51__Lambda\CPUFW\21__BIOS\WS\BIOS\Release/../Src/bios_hcmd.c:113 (discriminator 2)
    1fe2:	27c6a703          	lw	a4,636(a3)
    1fe6:	4318                	lw	a4,0(a4)
    1fe8:	8309                	srli	a4,a4,0x2
    1fea:	fae7eee3          	bltu	a5,a4,1fa6 <BIOS_HCMD_ACC_REG+0xd2>
    1fee:	8082                	ret
D:\42__Project__CREOSS__SW\51__Lambda\CPUFW\21__BIOS\WS\BIOS\Release/../Src/bios_hcmd.c:115

	/* W_BURST */	else if (harg==0x0030) { for ( n=0; n<hwdp32_arg[0]/4; n++ ) { set_mem ( (uint32_t) (hwdp32_arg[1] + 4*n ), hwdp32_arg[ 2 + n ] );	smon(d32[2],n); smon(d32[3],hwdp32_arg[1]+4*n);             smon(d32[4],hwdp32_arg[2+n]);	}	}
    1ff0:	24c7d703          	lhu	a4,588(a5)
    1ff4:	03000693          	li	a3,48
    1ff8:	0742                	slli	a4,a4,0x10
    1ffa:	8341                	srli	a4,a4,0x10
    1ffc:	04d71863          	bne	a4,a3,204c <BIOS_HCMD_ACC_REG+0x178>
    2000:	4781                	li	a5,0
    2002:	40001737          	lui	a4,0x40001
    2006:	80ff0637          	lui	a2,0x80ff0
    200a:	a815                	j	203e <BIOS_HCMD_ACC_REG+0x16a>
D:\42__Project__CREOSS__SW\51__Lambda\CPUFW\21__BIOS\WS\BIOS\Release/../Src/bios_hcmd.c:115 (discriminator 4)
    200c:	27c72503          	lw	a0,636(a4) # 4000127c <hwdp32_arg>
    2010:	27c72583          	lw	a1,636(a4)
    2014:	00279693          	slli	a3,a5,0x2
    2018:	00868813          	addi	a6,a3,8
    201c:	41cc                	lw	a1,4(a1)
    201e:	9542                	add	a0,a0,a6
    2020:	4108                	lw	a0,0(a0)
    2022:	95b6                	add	a1,a1,a3
    2024:	c188                	sw	a0,0(a1)
    2026:	ce3c                	sw	a5,88(a2)
    2028:	27c72583          	lw	a1,636(a4)
    202c:	0785                	addi	a5,a5,1
    202e:	41cc                	lw	a1,4(a1)
    2030:	96ae                	add	a3,a3,a1
    2032:	ce74                	sw	a3,92(a2)
    2034:	27c72683          	lw	a3,636(a4)
    2038:	96c2                	add	a3,a3,a6
    203a:	4294                	lw	a3,0(a3)
    203c:	d234                	sw	a3,96(a2)
D:\42__Project__CREOSS__SW\51__Lambda\CPUFW\21__BIOS\WS\BIOS\Release/../Src/bios_hcmd.c:115 (discriminator 2)
    203e:	27c72683          	lw	a3,636(a4)
    2042:	4294                	lw	a3,0(a3)
    2044:	8289                	srli	a3,a3,0x2
    2046:	fcd7e3e3          	bltu	a5,a3,200c <BIOS_HCMD_ACC_REG+0x138>
    204a:	8082                	ret
D:\42__Project__CREOSS__SW\51__Lambda\CPUFW\21__BIOS\WS\BIOS\Release/../Src/bios_hcmd.c:116
	/* R_BURST */	else if (harg==0x0031) { for ( n=0; n<hwdp32_arg[0]/4; n++ ) { hrdp32_arg[n] = get_mem ( (uint32_t) (hwdp32_arg[1] + 4*n)  );		smon(d32[2],n); smon(d32[3],(uint32_t)(hwdp32_arg[1]+4*n)); smon(d32[4],hrdp32_arg[n]);	}	}
    204c:	24c7d783          	lhu	a5,588(a5)
    2050:	03100713          	li	a4,49
    2054:	07c2                	slli	a5,a5,0x10
    2056:	83c1                	srli	a5,a5,0x10
    2058:	04e79763          	bne	a5,a4,20a6 <BIOS_HCMD_ACC_REG+0x1d2>
    205c:	4781                	li	a5,0
    205e:	400016b7          	lui	a3,0x40001
    2062:	40001837          	lui	a6,0x40001
    2066:	80ff0637          	lui	a2,0x80ff0
    206a:	a805                	j	209a <BIOS_HCMD_ACC_REG+0x1c6>
D:\42__Project__CREOSS__SW\51__Lambda\CPUFW\21__BIOS\WS\BIOS\Release/../Src/bios_hcmd.c:116 (discriminator 4)
    206c:	27c6a583          	lw	a1,636(a3) # 4000127c <hwdp32_arg>
    2070:	00279713          	slli	a4,a5,0x2
    2074:	41c8                	lw	a0,4(a1)
    2076:	26082583          	lw	a1,608(a6) # 40001260 <hrdp32_arg>
    207a:	953a                	add	a0,a0,a4
    207c:	4108                	lw	a0,0(a0)
    207e:	95ba                	add	a1,a1,a4
    2080:	c188                	sw	a0,0(a1)
    2082:	ce3c                	sw	a5,88(a2)
    2084:	27c6a583          	lw	a1,636(a3)
    2088:	0785                	addi	a5,a5,1
    208a:	41cc                	lw	a1,4(a1)
    208c:	95ba                	add	a1,a1,a4
    208e:	ce6c                	sw	a1,92(a2)
    2090:	26082583          	lw	a1,608(a6)
    2094:	972e                	add	a4,a4,a1
    2096:	4318                	lw	a4,0(a4)
    2098:	d238                	sw	a4,96(a2)
D:\42__Project__CREOSS__SW\51__Lambda\CPUFW\21__BIOS\WS\BIOS\Release/../Src/bios_hcmd.c:116 (discriminator 2)
    209a:	27c6a703          	lw	a4,636(a3)
    209e:	4318                	lw	a4,0(a4)
    20a0:	8309                	srli	a4,a4,0x2
    20a2:	fce7e5e3          	bltu	a5,a4,206c <BIOS_HCMD_ACC_REG+0x198>
D:\42__Project__CREOSS__SW\51__Lambda\CPUFW\21__BIOS\WS\BIOS\Release/../Src/bios_hcmd.c:117
}
    20a6:	8082                	ret

Disassembly of section .text.BIOS_HCMD_SE:

000020a8 <BIOS_HCMD_SE>:
BIOS_HCMD_SE():
D:\42__Project__CREOSS__SW\51__Lambda\CPUFW\21__BIOS\WS\BIOS\Release/../Src/bios_hcmd.c:139
//	harg_h      = harg & 0xFF00;
//
//	//------------------------------------------------------------
//	//--	SE_SL
//	//------------------------------------------------------------
	if 	(harg==0x0000) {		}
    20a8:	40001737          	lui	a4,0x40001
    20ac:	24c75783          	lhu	a5,588(a4) # 4000124c <harg>
    20b0:	07c2                	slli	a5,a5,0x10
    20b2:	83c1                	srli	a5,a5,0x10
    20b4:	c3b9                	beqz	a5,20fa <BIOS_HCMD_SE+0x52>
D:\42__Project__CREOSS__SW\51__Lambda\CPUFW\21__BIOS\WS\BIOS\Release/../Src/bios_hcmd.c:157
//
//
	//------------------------------------------------------------
	//--	SE_LL
	//------------------------------------------------------------
	else if (harg==0xD000) {
    20b6:	24c75783          	lhu	a5,588(a4)
    20ba:	6735                	lui	a4,0xd
    20bc:	07c2                	slli	a5,a5,0x10
    20be:	83c1                	srli	a5,a5,0x10
    20c0:	02e79d63          	bne	a5,a4,20fa <BIOS_HCMD_SE+0x52>
D:\42__Project__CREOSS__SW\51__Lambda\CPUFW\21__BIOS\WS\BIOS\Release/../Src/bios_hcmd.c:164
		//	(uint16_t) hwdp32_arg[0],	((uint8_t*) (&hwdp32_arg[2]           )),
		//	(uint16_t) hwdp32_arg[1],	((uint8_t*) (&hrdp32_arg[0]           ))
		//);
		spim_cmdgen (	0x0, 0x00,								//	uint16_t vcmd, uint16_t cmd, 
				0x0, 0x00,								//	uint16_t wargnbyte, uint32_t warg, 
				(uint16_t) hwdp32_arg[0],	((uint8_t*) (&hwdp32_arg[2] )),		//	uint32_t wnbyte, uint8_t* wbuf, 
    20c4:	40001737          	lui	a4,0x40001
    20c8:	27c72683          	lw	a3,636(a4) # 4000127c <hwdp32_arg>
D:\42__Project__CREOSS__SW\51__Lambda\CPUFW\21__BIOS\WS\BIOS\Release/../Src/bios_hcmd.c:162
		spim_cmdgen (	0x0, 0x00,								//	uint16_t vcmd, uint16_t cmd, 
    20cc:	27c72783          	lw	a5,636(a4)
D:\42__Project__CREOSS__SW\51__Lambda\CPUFW\21__BIOS\WS\BIOS\Release/../Src/bios_hcmd.c:165
				(uint16_t) hwdp32_arg[1],	((uint8_t*) (&hrdp32_arg[0] ))		//	uint32_t rnbyte, uint8_t* rbuf){
    20d0:	27c72703          	lw	a4,636(a4)
D:\42__Project__CREOSS__SW\51__Lambda\CPUFW\21__BIOS\WS\BIOS\Release/../Src/bios_hcmd.c:162
		spim_cmdgen (	0x0, 0x00,								//	uint16_t vcmd, uint16_t cmd, 
    20d4:	4294                	lw	a3,0(a3)
    20d6:	40001637          	lui	a2,0x40001
    20da:	00472803          	lw	a6,4(a4)
    20de:	26062883          	lw	a7,608(a2) # 40001260 <hrdp32_arg>
    20e2:	6741                	lui	a4,0x10
    20e4:	177d                	addi	a4,a4,-1
    20e6:	00e87833          	and	a6,a6,a4
    20ea:	07a1                	addi	a5,a5,8
    20ec:	8f75                	and	a4,a4,a3
    20ee:	4601                	li	a2,0
    20f0:	4681                	li	a3,0
    20f2:	4581                	li	a1,0
    20f4:	4501                	li	a0,0
    20f6:	bb7fe06f          	j	cac <spim_cmdgen>
D:\42__Project__CREOSS__SW\51__Lambda\CPUFW\21__BIOS\WS\BIOS\Release/../Src/bios_hcmd.c:176
	//return 0;




}
    20fa:	8082                	ret

Disassembly of section .text.BIOS_HCMD_EVAL:

000020fc <BIOS_HCMD_EVAL>:
BIOS_HCMD_EVAL():
D:\42__Project__CREOSS__SW\51__Lambda\CPUFW\21__BIOS\WS\BIOS\Release/../Src/bios_hcmd.c:230

	//------------------------------------------------------------
	//--	VERSION
	//------------------------------------------------------------
	//smon ( st1,  0x0400 );
	if ( harg==0x0003 ) {
    20fc:	40001737          	lui	a4,0x40001
    2100:	24c75783          	lhu	a5,588(a4) # 4000124c <harg>
    2104:	468d                	li	a3,3
    2106:	07c2                	slli	a5,a5,0x10
    2108:	83c1                	srli	a5,a5,0x10
    210a:	06d79c63          	bne	a5,a3,2182 <BIOS_HCMD_EVAL+0x86>
D:\42__Project__CREOSS__SW\51__Lambda\CPUFW\21__BIOS\WS\BIOS\Release/../Src/bios_hcmd.c:231
		hrdp32_arg[0x00]   = ( 'T' << 0 ) | ( 'C' << 8 ) | ( 'S' << 16 ) | ( 'R' << 24 );										// TCSR
    210e:	400017b7          	lui	a5,0x40001
    2112:	2607a603          	lw	a2,608(a5) # 40001260 <hrdp32_arg>
    2116:	525346b7          	lui	a3,0x52534
    211a:	35468693          	addi	a3,a3,852 # 52534354 <_stack_start+0x12532b58>
    211e:	c214                	sw	a3,0(a2)
D:\42__Project__CREOSS__SW\51__Lambda\CPUFW\21__BIOS\WS\BIOS\Release/../Src/bios_hcmd.c:232
		hrdp32_arg[0x01]   = ( '3' << 0 ) | ( '2' << 8 ) | ( 'V' << 16 ) | ( '_' << 24 );										// 32V_
    2120:	2607a603          	lw	a2,608(a5)
    2124:	5f5636b7          	lui	a3,0x5f563
    2128:	23368693          	addi	a3,a3,563 # 5f563233 <_stack_start+0x1f561a37>
    212c:	c254                	sw	a3,4(a2)
D:\42__Project__CREOSS__SW\51__Lambda\CPUFW\21__BIOS\WS\BIOS\Release/../Src/bios_hcmd.c:234

		hrdp32_arg[0x02]   = ( 'B' << 0 ) | ( 'I' << 8 ) | ( 'O' << 16 ) | ( 'S' << 24 );										// 32V_
    212e:	2607a603          	lw	a2,608(a5)
    2132:	534f56b7          	lui	a3,0x534f5
    2136:	94268693          	addi	a3,a3,-1726 # 534f4942 <_stack_start+0x134f3146>
    213a:	c614                	sw	a3,8(a2)
D:\42__Project__CREOSS__SW\51__Lambda\CPUFW\21__BIOS\WS\BIOS\Release/../Src/bios_hcmd.c:235
		hrdp32_arg[0x03]   = ( '.' << 0 ) | ( '.' << 8 ) | ( '.' << 16 ) | ( '.' << 24 );										// 32V_
    213c:	2607a603          	lw	a2,608(a5)
    2140:	2e2e36b7          	lui	a3,0x2e2e3
    2144:	e2e68693          	addi	a3,a3,-466 # 2e2e2e2e <strnlen+0x2e2e079a>
    2148:	c654                	sw	a3,12(a2)
D:\42__Project__CREOSS__SW\51__Lambda\CPUFW\21__BIOS\WS\BIOS\Release/../Src/bios_hcmd.c:237

		hrdp32_arg[0x04]   = ((__DATE__[7]          )<<0)   |   ((__DATE__[8]          )<<8)   |   ((__DATE__[9]         )<<16)   |   ((__DATE__[10]        )<<24) ;	// YYYY
    214a:	2607a603          	lw	a2,608(a5)
    214e:	323236b7          	lui	a3,0x32323
    2152:	03268693          	addi	a3,a3,50 # 32323032 <strnlen+0x3232099e>
    2156:	ca14                	sw	a3,16(a2)
D:\42__Project__CREOSS__SW\51__Lambda\CPUFW\21__BIOS\WS\BIOS\Release/../Src/bios_hcmd.c:238
		hrdp32_arg[0x05]   = ((__DEF_MONTH__/10 +'0')<<0)   |   ((__DEF_MONTH__%10 +'0')<<8)   |   ((__DEF_DAY__ /10 +'0')<<16)   |   ((__DEF_DAY__ %10 +'0')<<24) ;	// MMDD
    2158:	2607a603          	lw	a2,608(a5)
    215c:	363246b7          	lui	a3,0x36324
    2160:	83068693          	addi	a3,a3,-2000 # 36323830 <strnlen+0x3632119c>
    2164:	ca54                	sw	a3,20(a2)
D:\42__Project__CREOSS__SW\51__Lambda\CPUFW\21__BIOS\WS\BIOS\Release/../Src/bios_hcmd.c:240

		hrdp32_arg[0x06]   = (('_'                  )<<0)   |   (('_'                  )<<8)   |   ((__DEF_HOUR__/10 +'0')<<16)   |   ((__DEF_HOUR__%10 +'0')<<24) ;	// __HH
    2166:	2607a603          	lw	a2,608(a5)
    216a:	303266b7          	lui	a3,0x30326
    216e:	f5f68693          	addi	a3,a3,-161 # 30325f5f <strnlen+0x303238cb>
    2172:	ce14                	sw	a3,24(a2)
D:\42__Project__CREOSS__SW\51__Lambda\CPUFW\21__BIOS\WS\BIOS\Release/../Src/bios_hcmd.c:241
		hrdp32_arg[0x07]   = ((__DEF_MIN__ /10 +'0' )<<0)   |   ((__DEF_MIN__  %10 +'0')<<8)   |   ((__DEF_SEC__ /10 +'0')<<16)   |   ((__DEF_SEC__ %10 +'0')<<24) ;	// MMSS
    2174:	2607a683          	lw	a3,608(a5)
    2178:	353337b7          	lui	a5,0x35333
    217c:	63478793          	addi	a5,a5,1588 # 35333634 <strnlen+0x35330fa0>
    2180:	cedc                	sw	a5,28(a3)
D:\42__Project__CREOSS__SW\51__Lambda\CPUFW\21__BIOS\WS\BIOS\Release/../Src/bios_hcmd.c:248

	//------------------------------------------------------------
	//--	Check_BIOS_ALIVE
	//------------------------------------------------------------
	//smon ( st1,  0x0500 );
	if ( harg==0x0100 ) {	smon (d16[2], 0x0100 );     hrdp32_arg[0x00] = 0x15141312;	}
    2182:	24c75783          	lhu	a5,588(a4)
    2186:	10000693          	li	a3,256
    218a:	07c2                	slli	a5,a5,0x10
    218c:	83c1                	srli	a5,a5,0x10
    218e:	00d79f63          	bne	a5,a3,21ac <BIOS_HCMD_EVAL+0xb0>
D:\42__Project__CREOSS__SW\51__Lambda\CPUFW\21__BIOS\WS\BIOS\Release/../Src/bios_hcmd.c:248 (discriminator 1)
    2192:	80ff06b7          	lui	a3,0x80ff0
    2196:	00f69a23          	sh	a5,20(a3) # 80ff0014 <_ctype_+0xfff1fcbc>
    219a:	400017b7          	lui	a5,0x40001
    219e:	2607a683          	lw	a3,608(a5) # 40001260 <hrdp32_arg>
    21a2:	151417b7          	lui	a5,0x15141
    21a6:	31278793          	addi	a5,a5,786 # 15141312 <strnlen+0x1513ec7e>
    21aa:	c29c                	sw	a5,0(a3)
D:\42__Project__CREOSS__SW\51__Lambda\CPUFW\21__BIOS\WS\BIOS\Release/../Src/bios_hcmd.c:249
	if ( harg==0x0101 ) {	smon (d16[2], 0x0101 );     hrdp32_arg[0x00] = 0x3E3D3C3B;	}
    21ac:	24c75783          	lhu	a5,588(a4)
    21b0:	10100713          	li	a4,257
    21b4:	07c2                	slli	a5,a5,0x10
    21b6:	83c1                	srli	a5,a5,0x10
    21b8:	00e79f63          	bne	a5,a4,21d6 <BIOS_HCMD_EVAL+0xda>
D:\42__Project__CREOSS__SW\51__Lambda\CPUFW\21__BIOS\WS\BIOS\Release/../Src/bios_hcmd.c:249 (discriminator 1)
    21bc:	80ff0737          	lui	a4,0x80ff0
    21c0:	00f71a23          	sh	a5,20(a4) # 80ff0014 <_ctype_+0xfff1fcbc>
    21c4:	400017b7          	lui	a5,0x40001
    21c8:	2607a703          	lw	a4,608(a5) # 40001260 <hrdp32_arg>
    21cc:	3e3d47b7          	lui	a5,0x3e3d4
    21d0:	c3b78793          	addi	a5,a5,-965 # 3e3d3c3b <strnlen+0x3e3d15a7>
    21d4:	c31c                	sw	a5,0(a4)
D:\42__Project__CREOSS__SW\51__Lambda\CPUFW\21__BIOS\WS\BIOS\Release/../Src/bios_hcmd.c:260
	//if ( harg==0x8100 ) {	/* smon (st0, 0x8100 );	smon(den,0);	 smon(d[0], hwdpa32[0]);*/	delay_nop (hwdp32_arg[0]);						}
	//if ( harg==0x8110 ) {	/* smon (st0, 0x8110 );	smon(den,0);	*/	asm_nop_macro_x8();	__asm__ volatile ( "ewait\n\t"::: ); 	asm_nop_macro_x8();	}



}
    21d6:	8082                	ret

Disassembly of section .text.crs32v_int_check:

000021d8 <crs32v_int_check>:
crs32v_int_check():
D:\42__Project__CREOSS__SW\51__Lambda\CPUFW\21__BIOS\WS\BIOS\Release/../Src/crs32v_int.c:46
	//	print_str("\tMEPC      = ");	print_hex(csr_read(mepc), 8);		print_str("\n");
	//	print_str("\tMTSF      = ");	print_hex(csr_read(0xbd8), 8);		print_str("\n");
	//	print_str("\tMSTATUS   = ");	print_hex(csr_read(mstatus), 8);	print_str("\n");
	//	print_str("\tMIE       = ");	print_hex(csr_read(mie), 8);		print_str("\n");
	//	print_str("\tMIP       = ");	print_hex(csr_read(mip), 8);		print_str("\n");
}
    21d8:	8082                	ret

Disassembly of section .text.crs32v_int_check_mtsf:

000021da <crs32v_int_check_mtsf>:
crs32v_int_check_mtsf():
D:\42__Project__CREOSS__SW\51__Lambda\CPUFW\21__BIOS\WS\BIOS\Release/../Src/crs32v_int.c:54
void	crs32v_int_check_mtsf()
{
	unsigned int	csr_mtsf;

	// read CSR.mtsf
	csr_mtsf = csr_read(0xbd8);
    21da:	bd8027f3          	csrr	a5,0xbd8
D:\42__Project__CREOSS__SW\51__Lambda\CPUFW\21__BIOS\WS\BIOS\Release/../Src/crs32v_int.c:60

	// check if there is ignored exception
	if ((csr_mtsf & 0x2)==0x2){
		//	print_str("\tException is ignored due to cause = ");	print_hex((csr_mtsf>>26), 8);		print_str("\n");
	}
}
    21de:	8082                	ret

Disassembly of section .text.crs32v_trap_msi:

000021e0 <crs32v_trap_msi>:
crs32v_trap_msi():
    21e0:	8082                	ret

Disassembly of section .text.crs32v_trap_mti:

000021e2 <crs32v_trap_mti>:
crs32v_trap_mti():
    21e2:	8082                	ret

Disassembly of section .text.crs32v_trap_mei:

000021e4 <crs32v_trap_mei>:
crs32v_trap_mei():
D:\42__Project__CREOSS__SW\51__Lambda\CPUFW\21__BIOS\WS\BIOS\Release/../Src/crs32v_int.c:86
// External interrupt
void	crs32v_trap_mei()
{
	char	t[2];

	set_mem(LAMBDA_SPB_UART_INT_MSK, 0x3f);
    21e4:	810307b7          	lui	a5,0x81030
    21e8:	03f00713          	li	a4,63
    21ec:	c398                	sw	a4,0(a5)
D:\42__Project__CREOSS__SW\51__Lambda\CPUFW\21__BIOS\WS\BIOS\Release/../Src/crs32v_int.c:90

	//	print_str("External interrupt detected !!!\n");
	//	print_str("Received UART data = ");
	t[0] = (char)(get_mem(LAMBDA_SPB_UART_TRX_BUF0));
    21ee:	0807a703          	lw	a4,128(a5) # 81030080 <_ctype_+0xfff5fd28>
crs32v_int_check_mtsf():
D:\42__Project__CREOSS__SW\51__Lambda\CPUFW\21__BIOS\WS\BIOS\Release/../Src/crs32v_int.c:54
	csr_mtsf = csr_read(0xbd8);
    21f2:	bd802773          	csrr	a4,0xbd8
crs32v_trap_mei():
D:\42__Project__CREOSS__SW\51__Lambda\CPUFW\21__BIOS\WS\BIOS\Release/../Src/crs32v_int.c:96
	t[1] = '\0';
	//	print_str(t);
	//	print_str("\n");
	crs32v_int_check();
	crs32v_int_check_mtsf();
	set_mem(LAMBDA_SPB_UART_CAC, 0x8);				// RX_BUF_CLR
    21f6:	4721                	li	a4,8
    21f8:	cbd8                	sw	a4,20(a5)
D:\42__Project__CREOSS__SW\51__Lambda\CPUFW\21__BIOS\WS\BIOS\Release/../Src/crs32v_int.c:97
	set_mem(LAMBDA_SPB_UART_INT_SRC, 0);
    21fa:	0007a223          	sw	zero,4(a5)
D:\42__Project__CREOSS__SW\51__Lambda\CPUFW\21__BIOS\WS\BIOS\Release/../Src/crs32v_int.c:98
	set_mem(LAMBDA_SPB_UART_INT_MSK, 0x3e);
    21fe:	03e00713          	li	a4,62
    2202:	c398                	sw	a4,0(a5)
D:\42__Project__CREOSS__SW\51__Lambda\CPUFW\21__BIOS\WS\BIOS\Release/../Src/crs32v_int.c:99
}
    2204:	8082                	ret

Disassembly of section .text.crs32v_trap_mfi_00:

00002206 <crs32v_trap_mfi_00>:
crs32v_int_check_mtsf():
D:\42__Project__CREOSS__SW\51__Lambda\CPUFW\21__BIOS\WS\BIOS\Release/../Src/crs32v_int.c:54
	csr_mtsf = csr_read(0xbd8);
    2206:	bd8027f3          	csrr	a5,0xbd8
crs32v_trap_mfi_00():
D:\42__Project__CREOSS__SW\51__Lambda\CPUFW\21__BIOS\WS\BIOS\Release/../Src/crs32v_int.c:107
void	crs32v_trap_mfi_00()
{
	//	print_str("Fast interrupt 00 detected !!!\n");
	crs32v_int_check();
	crs32v_int_check_mtsf();
	set_mem(LAMBDA_SPB_EINT_INT_MRS, 0x0001);
    220a:	810d27b7          	lui	a5,0x810d2
    220e:	4705                	li	a4,1
    2210:	c798                	sw	a4,8(a5)
D:\42__Project__CREOSS__SW\51__Lambda\CPUFW\21__BIOS\WS\BIOS\Release/../Src/crs32v_int.c:108
}
    2212:	8082                	ret

Disassembly of section .text.crs32v_trap_mfi_01:

00002214 <crs32v_trap_mfi_01>:
crs32v_int_check_mtsf():
D:\42__Project__CREOSS__SW\51__Lambda\CPUFW\21__BIOS\WS\BIOS\Release/../Src/crs32v_int.c:54
	csr_mtsf = csr_read(0xbd8);
    2214:	bd8027f3          	csrr	a5,0xbd8
crs32v_trap_mfi_01():
D:\42__Project__CREOSS__SW\51__Lambda\CPUFW\21__BIOS\WS\BIOS\Release/../Src/crs32v_int.c:116
void	crs32v_trap_mfi_01()
{
	//	print_str("Fast interrupt 01 detected !!!\n");
	crs32v_int_check();
	crs32v_int_check_mtsf();
	set_mem(LAMBDA_SPB_EINT_INT_MRS, 0x0002);
    2218:	810d27b7          	lui	a5,0x810d2
    221c:	4709                	li	a4,2
    221e:	c798                	sw	a4,8(a5)
D:\42__Project__CREOSS__SW\51__Lambda\CPUFW\21__BIOS\WS\BIOS\Release/../Src/crs32v_int.c:117
}
    2220:	8082                	ret

Disassembly of section .text.crs32v_trap_mfi_02:

00002222 <crs32v_trap_mfi_02>:
crs32v_int_check_mtsf():
D:\42__Project__CREOSS__SW\51__Lambda\CPUFW\21__BIOS\WS\BIOS\Release/../Src/crs32v_int.c:54
	csr_mtsf = csr_read(0xbd8);
    2222:	bd8027f3          	csrr	a5,0xbd8
crs32v_trap_mfi_02():
D:\42__Project__CREOSS__SW\51__Lambda\CPUFW\21__BIOS\WS\BIOS\Release/../Src/crs32v_int.c:125
void	crs32v_trap_mfi_02()
{
	//	print_str("Fast interrupt 02 detected !!!\n");
	crs32v_int_check();
	crs32v_int_check_mtsf();
	set_mem(LAMBDA_SPB_EINT_INT_MRS, 0x0004);
    2226:	810d27b7          	lui	a5,0x810d2
    222a:	4711                	li	a4,4
    222c:	c798                	sw	a4,8(a5)
D:\42__Project__CREOSS__SW\51__Lambda\CPUFW\21__BIOS\WS\BIOS\Release/../Src/crs32v_int.c:126
}
    222e:	8082                	ret

Disassembly of section .text.crs32v_trap_mfi_03:

00002230 <crs32v_trap_mfi_03>:
crs32v_int_check_mtsf():
D:\42__Project__CREOSS__SW\51__Lambda\CPUFW\21__BIOS\WS\BIOS\Release/../Src/crs32v_int.c:54
	csr_mtsf = csr_read(0xbd8);
    2230:	bd8027f3          	csrr	a5,0xbd8
crs32v_trap_mfi_03():
D:\42__Project__CREOSS__SW\51__Lambda\CPUFW\21__BIOS\WS\BIOS\Release/../Src/crs32v_int.c:134
void	crs32v_trap_mfi_03()
{
	//	print_str("Fast interrupt 03 detected !!!\n");
	crs32v_int_check();
	crs32v_int_check_mtsf();
	set_mem(LAMBDA_SPB_EINT_INT_MRS, 0x0008);
    2234:	810d27b7          	lui	a5,0x810d2
    2238:	4721                	li	a4,8
    223a:	c798                	sw	a4,8(a5)
D:\42__Project__CREOSS__SW\51__Lambda\CPUFW\21__BIOS\WS\BIOS\Release/../Src/crs32v_int.c:135
}
    223c:	8082                	ret

Disassembly of section .text.crs32v_trap_mfi_04:

0000223e <crs32v_trap_mfi_04>:
crs32v_int_check_mtsf():
D:\42__Project__CREOSS__SW\51__Lambda\CPUFW\21__BIOS\WS\BIOS\Release/../Src/crs32v_int.c:54
	csr_mtsf = csr_read(0xbd8);
    223e:	bd8027f3          	csrr	a5,0xbd8
crs32v_trap_mfi_04():
D:\42__Project__CREOSS__SW\51__Lambda\CPUFW\21__BIOS\WS\BIOS\Release/../Src/crs32v_int.c:143
void	crs32v_trap_mfi_04()
{
	//	print_str("Fast interrupt 04 detected !!!\n");
	crs32v_int_check();
	crs32v_int_check_mtsf();
	set_mem(LAMBDA_SPB_EINT_INT_MRS, 0x0010);
    2242:	810d27b7          	lui	a5,0x810d2
    2246:	4741                	li	a4,16
    2248:	c798                	sw	a4,8(a5)
D:\42__Project__CREOSS__SW\51__Lambda\CPUFW\21__BIOS\WS\BIOS\Release/../Src/crs32v_int.c:144
}
    224a:	8082                	ret

Disassembly of section .text.crs32v_trap_mfi_05:

0000224c <crs32v_trap_mfi_05>:
crs32v_int_check_mtsf():
D:\42__Project__CREOSS__SW\51__Lambda\CPUFW\21__BIOS\WS\BIOS\Release/../Src/crs32v_int.c:54
	csr_mtsf = csr_read(0xbd8);
    224c:	bd8027f3          	csrr	a5,0xbd8
crs32v_trap_mfi_05():
D:\42__Project__CREOSS__SW\51__Lambda\CPUFW\21__BIOS\WS\BIOS\Release/../Src/crs32v_int.c:152
void	crs32v_trap_mfi_05()
{
	//	print_str("Fast interrupt 05 detected !!!\n");
	crs32v_int_check();
	crs32v_int_check_mtsf();
	set_mem(LAMBDA_SPB_EINT_INT_MRS, 0x0020);
    2250:	810d27b7          	lui	a5,0x810d2
    2254:	02000713          	li	a4,32
    2258:	c798                	sw	a4,8(a5)
D:\42__Project__CREOSS__SW\51__Lambda\CPUFW\21__BIOS\WS\BIOS\Release/../Src/crs32v_int.c:153
}
    225a:	8082                	ret

Disassembly of section .text.crs32v_trap_mfi_06:

0000225c <crs32v_trap_mfi_06>:
crs32v_int_check_mtsf():
D:\42__Project__CREOSS__SW\51__Lambda\CPUFW\21__BIOS\WS\BIOS\Release/../Src/crs32v_int.c:54
	csr_mtsf = csr_read(0xbd8);
    225c:	bd8027f3          	csrr	a5,0xbd8
crs32v_trap_mfi_06():
D:\42__Project__CREOSS__SW\51__Lambda\CPUFW\21__BIOS\WS\BIOS\Release/../Src/crs32v_int.c:162
{
	//	print_str("Fast interrupt 06 detected !!!\n");
	crs32v_int_check();
	crs32v_int_check_mtsf();
	//set_mem(LAMBDA_SPB_EINT_INT_MRS, 0x0040);
	set_mem(LAMBDA_SPB_UART_INT_SRC, 0x0000);
    2260:	810307b7          	lui	a5,0x81030
    2264:	0007a223          	sw	zero,4(a5) # 81030004 <_ctype_+0xfff5fcac>
D:\42__Project__CREOSS__SW\51__Lambda\CPUFW\21__BIOS\WS\BIOS\Release/../Src/crs32v_int.c:163
}
    2268:	8082                	ret

Disassembly of section .text.crs32v_trap_mfi_07:

0000226a <crs32v_trap_mfi_07>:
crs32v_int_check_mtsf():
D:\42__Project__CREOSS__SW\51__Lambda\CPUFW\21__BIOS\WS\BIOS\Release/../Src/crs32v_int.c:54
	csr_mtsf = csr_read(0xbd8);
    226a:	bd8027f3          	csrr	a5,0xbd8
crs32v_trap_mfi_07():
D:\42__Project__CREOSS__SW\51__Lambda\CPUFW\21__BIOS\WS\BIOS\Release/../Src/crs32v_int.c:171
void	crs32v_trap_mfi_07()
{
	//	print_str("Fast interrupt 07 detected !!!\n");
	crs32v_int_check();
	crs32v_int_check_mtsf();
	set_mem(LAMBDA_SPB_EINT_INT_MRS, 0x0080);
    226e:	810d27b7          	lui	a5,0x810d2
    2272:	08000713          	li	a4,128
    2276:	c798                	sw	a4,8(a5)
D:\42__Project__CREOSS__SW\51__Lambda\CPUFW\21__BIOS\WS\BIOS\Release/../Src/crs32v_int.c:172
}
    2278:	8082                	ret

Disassembly of section .text.crs32v_trap_mfi_08:

0000227a <crs32v_trap_mfi_08>:
crs32v_int_check_mtsf():
D:\42__Project__CREOSS__SW\51__Lambda\CPUFW\21__BIOS\WS\BIOS\Release/../Src/crs32v_int.c:54
	csr_mtsf = csr_read(0xbd8);
    227a:	bd8027f3          	csrr	a5,0xbd8
crs32v_trap_mfi_08():
D:\42__Project__CREOSS__SW\51__Lambda\CPUFW\21__BIOS\WS\BIOS\Release/../Src/crs32v_int.c:180
void	crs32v_trap_mfi_08()
{
	//	print_str("Fast interrupt 08 detected !!!\n");
	crs32v_int_check();
	crs32v_int_check_mtsf();
	set_mem(LAMBDA_SPB_EINT_INT_MRS, 0x0100);
    227e:	810d27b7          	lui	a5,0x810d2
    2282:	10000713          	li	a4,256
    2286:	c798                	sw	a4,8(a5)
D:\42__Project__CREOSS__SW\51__Lambda\CPUFW\21__BIOS\WS\BIOS\Release/../Src/crs32v_int.c:181
}
    2288:	8082                	ret

Disassembly of section .text.crs32v_trap_mfi_09:

0000228a <crs32v_trap_mfi_09>:
crs32v_int_check_mtsf():
D:\42__Project__CREOSS__SW\51__Lambda\CPUFW\21__BIOS\WS\BIOS\Release/../Src/crs32v_int.c:54
	csr_mtsf = csr_read(0xbd8);
    228a:	bd8027f3          	csrr	a5,0xbd8
crs32v_trap_mfi_09():
D:\42__Project__CREOSS__SW\51__Lambda\CPUFW\21__BIOS\WS\BIOS\Release/../Src/crs32v_int.c:189
void	crs32v_trap_mfi_09()
{
	//	print_str("Fast interrupt 09 detected !!!\n");
	crs32v_int_check();
	crs32v_int_check_mtsf();
	set_mem(LAMBDA_SPB_EINT_INT_MRS, 0x0200);
    228e:	810d27b7          	lui	a5,0x810d2
    2292:	20000713          	li	a4,512
    2296:	c798                	sw	a4,8(a5)
D:\42__Project__CREOSS__SW\51__Lambda\CPUFW\21__BIOS\WS\BIOS\Release/../Src/crs32v_int.c:190
}
    2298:	8082                	ret

Disassembly of section .text.crs32v_trap_mfi_10:

0000229a <crs32v_trap_mfi_10>:
crs32v_int_check_mtsf():
D:\42__Project__CREOSS__SW\51__Lambda\CPUFW\21__BIOS\WS\BIOS\Release/../Src/crs32v_int.c:54
	csr_mtsf = csr_read(0xbd8);
    229a:	bd8027f3          	csrr	a5,0xbd8
crs32v_trap_mfi_10():
D:\42__Project__CREOSS__SW\51__Lambda\CPUFW\21__BIOS\WS\BIOS\Release/../Src/crs32v_int.c:198
void	crs32v_trap_mfi_10()
{
	//	print_str("Fast interrupt 10 detected !!!\n");
	crs32v_int_check();
	crs32v_int_check_mtsf();
	set_mem(LAMBDA_SPB_EINT_INT_MRS, 0x0400);
    229e:	810d27b7          	lui	a5,0x810d2
    22a2:	40000713          	li	a4,1024
    22a6:	c798                	sw	a4,8(a5)
D:\42__Project__CREOSS__SW\51__Lambda\CPUFW\21__BIOS\WS\BIOS\Release/../Src/crs32v_int.c:199
}
    22a8:	8082                	ret

Disassembly of section .text.crs32v_trap_mfi_11:

000022aa <crs32v_trap_mfi_11>:
crs32v_int_check_mtsf():
D:\42__Project__CREOSS__SW\51__Lambda\CPUFW\21__BIOS\WS\BIOS\Release/../Src/crs32v_int.c:54
	csr_mtsf = csr_read(0xbd8);
    22aa:	bd8027f3          	csrr	a5,0xbd8
crs32v_trap_mfi_11():
D:\42__Project__CREOSS__SW\51__Lambda\CPUFW\21__BIOS\WS\BIOS\Release/../Src/crs32v_int.c:207
void	crs32v_trap_mfi_11()
{
	//	print_str("Fast interrupt 11 detected !!!\n");
	crs32v_int_check();
	crs32v_int_check_mtsf();
	set_mem(LAMBDA_SPB_EINT_INT_MRS, 0x0800);
    22ae:	6785                	lui	a5,0x1
    22b0:	810d2737          	lui	a4,0x810d2
    22b4:	80078793          	addi	a5,a5,-2048 # 800 <crs32v_vsprintf+0xd4>
    22b8:	c71c                	sw	a5,8(a4)
D:\42__Project__CREOSS__SW\51__Lambda\CPUFW\21__BIOS\WS\BIOS\Release/../Src/crs32v_int.c:209

	int_srv_i2cs ( );
    22ba:	80bfe06f          	j	ac4 <int_srv_i2cs>

Disassembly of section .text.crs32v_trap_mfi_12:

000022be <crs32v_trap_mfi_12>:
crs32v_int_check_mtsf():
D:\42__Project__CREOSS__SW\51__Lambda\CPUFW\21__BIOS\WS\BIOS\Release/../Src/crs32v_int.c:54
	csr_mtsf = csr_read(0xbd8);
    22be:	bd8027f3          	csrr	a5,0xbd8
crs32v_trap_mfi_12():
D:\42__Project__CREOSS__SW\51__Lambda\CPUFW\21__BIOS\WS\BIOS\Release/../Src/crs32v_int.c:218
void	crs32v_trap_mfi_12()
{
	//	print_str("Fast interrupt 12 detected !!!\n");
	crs32v_int_check();
	crs32v_int_check_mtsf();
	set_mem(LAMBDA_SPB_EINT_INT_MRS, 0x1000);
    22c2:	810d27b7          	lui	a5,0x810d2
    22c6:	6705                	lui	a4,0x1
    22c8:	c798                	sw	a4,8(a5)
D:\42__Project__CREOSS__SW\51__Lambda\CPUFW\21__BIOS\WS\BIOS\Release/../Src/crs32v_int.c:219
}
    22ca:	8082                	ret

Disassembly of section .text.crs32v_trap_mfi_13:

000022cc <crs32v_trap_mfi_13>:
crs32v_int_check_mtsf():
D:\42__Project__CREOSS__SW\51__Lambda\CPUFW\21__BIOS\WS\BIOS\Release/../Src/crs32v_int.c:54
	csr_mtsf = csr_read(0xbd8);
    22cc:	bd8027f3          	csrr	a5,0xbd8
crs32v_trap_mfi_13():
D:\42__Project__CREOSS__SW\51__Lambda\CPUFW\21__BIOS\WS\BIOS\Release/../Src/crs32v_int.c:227
void	crs32v_trap_mfi_13()
{
	//	print_str("Fast interrupt 13 detected !!!\n");
	crs32v_int_check();
	crs32v_int_check_mtsf();
	set_mem(LAMBDA_SPB_EINT_INT_MRS, 0x2000);
    22d0:	810d27b7          	lui	a5,0x810d2
    22d4:	6709                	lui	a4,0x2
    22d6:	c798                	sw	a4,8(a5)
D:\42__Project__CREOSS__SW\51__Lambda\CPUFW\21__BIOS\WS\BIOS\Release/../Src/crs32v_int.c:228
}
    22d8:	8082                	ret

Disassembly of section .text.crs32v_trap_mfi_14:

000022da <crs32v_trap_mfi_14>:
crs32v_int_check_mtsf():
D:\42__Project__CREOSS__SW\51__Lambda\CPUFW\21__BIOS\WS\BIOS\Release/../Src/crs32v_int.c:54
	csr_mtsf = csr_read(0xbd8);
    22da:	bd8027f3          	csrr	a5,0xbd8
crs32v_trap_mfi_14():
D:\42__Project__CREOSS__SW\51__Lambda\CPUFW\21__BIOS\WS\BIOS\Release/../Src/crs32v_int.c:236
void	crs32v_trap_mfi_14()
{
	//	print_str("Fast interrupt 14 detected !!!\n");
	crs32v_int_check();
	crs32v_int_check_mtsf();
	set_mem(LAMBDA_SPB_EINT_INT_MRS, 0x4000);
    22de:	810d27b7          	lui	a5,0x810d2
    22e2:	6711                	lui	a4,0x4
    22e4:	c798                	sw	a4,8(a5)
D:\42__Project__CREOSS__SW\51__Lambda\CPUFW\21__BIOS\WS\BIOS\Release/../Src/crs32v_int.c:237
}
    22e6:	8082                	ret

Disassembly of section .text.crs32v_trap_mfi_15:

000022e8 <crs32v_trap_mfi_15>:
crs32v_int_check_mtsf():
D:\42__Project__CREOSS__SW\51__Lambda\CPUFW\21__BIOS\WS\BIOS\Release/../Src/crs32v_int.c:54
	csr_mtsf = csr_read(0xbd8);
    22e8:	bd8027f3          	csrr	a5,0xbd8
crs32v_trap_mfi_15():
D:\42__Project__CREOSS__SW\51__Lambda\CPUFW\21__BIOS\WS\BIOS\Release/../Src/crs32v_int.c:245
void	crs32v_trap_mfi_15()
{
	//	print_str("Fast interrupt 15 detected !!!\n");
	crs32v_int_check();
	crs32v_int_check_mtsf();
	set_mem(LAMBDA_SPB_EINT_INT_MRS, 0x8000);
    22ec:	810d27b7          	lui	a5,0x810d2
    22f0:	6721                	lui	a4,0x8
    22f2:	c798                	sw	a4,8(a5)
D:\42__Project__CREOSS__SW\51__Lambda\CPUFW\21__BIOS\WS\BIOS\Release/../Src/crs32v_int.c:246
}
    22f4:	8082                	ret

Disassembly of section .text.startup.main:

000022f6 <main>:
main():
D:\42__Project__CREOSS__SW\51__Lambda\CPUFW\21__BIOS\WS\BIOS\Release/../Src/main.c:18
 * @bug	
 * @todo	
 * @warning	
 * @see	
*///----------------------------------------------------------------------------------------------------------------------
int	main() {
    22f6:	1141                	addi	sp,sp,-16
    22f8:	c606                	sw	ra,12(sp)
D:\42__Project__CREOSS__SW\51__Lambda\CPUFW\21__BIOS\WS\BIOS\Release/../Src/main.c:26
	//----------------------------------------------------------------------------------------------------
	//--	Very Initial Settings
	//----------------------------------------------------------------------------------------------------
	
	//--	global interrupt disable
	csr_glb_int_disable ( );
    22fa:	30047073          	csrci	mstatus,8
D:\42__Project__CREOSS__SW\51__Lambda\CPUFW\21__BIOS\WS\BIOS\Release/../Src/main.c:29

	//--	INTN Signal
	sIOPC.hintn_o  = 0x1;
    22fe:	810207b7          	lui	a5,0x81020
    2302:	4685                	li	a3,1
    2304:	c3b4                	sw	a3,64(a5)
D:\42__Project__CREOSS__SW\51__Lambda\CPUFW\21__BIOS\WS\BIOS\Release/../Src/main.c:30
	sIOPC.hintn_oe = 0x0;
    2306:	0407a223          	sw	zero,68(a5) # 81020044 <_ctype_+0xfff4fcec>
D:\42__Project__CREOSS__SW\51__Lambda\CPUFW\21__BIOS\WS\BIOS\Release/../Src/main.c:31
	sIOPC.hintn_o  = 0x0;
    230a:	0407a023          	sw	zero,64(a5)
D:\42__Project__CREOSS__SW\51__Lambda\CPUFW\21__BIOS\WS\BIOS\Release/../Src/main.c:49
	//--			DMA
	//----------------------------------------------------------------------------------------------------

	//--	I2CS
	sSPIM.ctrl_ac = SPIM_CTRL_AC_BLK_RST;
	sSPIM.clk_div = ((12-1)<<8) | ((12/2-1)<<0);
    230e:	6605                	lui	a2,0x1
D:\42__Project__CREOSS__SW\51__Lambda\CPUFW\21__BIOS\WS\BIOS\Release/../Src/main.c:48
	sSPIM.ctrl_ac = SPIM_CTRL_AC_BLK_RST;
    2310:	810907b7          	lui	a5,0x81090
    2314:	cbd4                	sw	a3,20(a5)
D:\42__Project__CREOSS__SW\51__Lambda\CPUFW\21__BIOS\WS\BIOS\Release/../Src/main.c:49
	sSPIM.clk_div = ((12-1)<<8) | ((12/2-1)<<0);
    2316:	b0560713          	addi	a4,a2,-1275 # b05 <int_srv_i2cs+0x41>
    231a:	d398                	sw	a4,32(a5)
D:\42__Project__CREOSS__SW\51__Lambda\CPUFW\21__BIOS\WS\BIOS\Release/../Src/main.c:52
	
	//--	I2CS
	sI2CS.ctrl_ac = I2CS_CTRL_AC_BLK_RST;
    231c:	810807b7          	lui	a5,0x81080
    2320:	cbd4                	sw	a3,20(a5)
D:\42__Project__CREOSS__SW\51__Lambda\CPUFW\21__BIOS\WS\BIOS\Release/../Src/main.c:53
	macro_nop_x4 ( );
    2322:	0001                	nop
    2324:	0001                	nop
    2326:	0001                	nop
    2328:	0001                	nop
D:\42__Project__CREOSS__SW\51__Lambda\CPUFW\21__BIOS\WS\BIOS\Release/../Src/main.c:55

	sI2CS.int_msk = 0xFFFF;
    232a:	6741                	lui	a4,0x10
    232c:	177d                	addi	a4,a4,-1
    232e:	c398                	sw	a4,0(a5)
D:\42__Project__CREOSS__SW\51__Lambda\CPUFW\21__BIOS\WS\BIOS\Release/../Src/main.c:56
	sI2CS.int_src = 0x0000;
    2330:	0007a223          	sw	zero,4(a5) # 81080004 <_ctype_+0xfffafcac>
D:\42__Project__CREOSS__SW\51__Lambda\CPUFW\21__BIOS\WS\BIOS\Release/../Src/main.c:58

	sI2CS.dev_add = 0xA6;
    2334:	0a600593          	li	a1,166
    2338:	c7ec                	sw	a1,76(a5)
D:\42__Project__CREOSS__SW\51__Lambda\CPUFW\21__BIOS\WS\BIOS\Release/../Src/main.c:60

	sI2CS.dma_badr_lower_limit = 0x0000;
    233a:	0807aa23          	sw	zero,148(a5)
D:\42__Project__CREOSS__SW\51__Lambda\CPUFW\21__BIOS\WS\BIOS\Release/../Src/main.c:61
	sI2CS.dma_badr_upper_limit = 2*1024;
    233e:	80060593          	addi	a1,a2,-2048
    2342:	08078613          	addi	a2,a5,128
    2346:	ce0c                	sw	a1,24(a2)
D:\42__Project__CREOSS__SW\51__Lambda\CPUFW\21__BIOS\WS\BIOS\Release/../Src/main.c:63

	sI2CS.dma_en = I2CS_DMA_EN_RD |	I2CS_DMA_EN_WR;
    2348:	458d                	li	a1,3
    234a:	c20c                	sw	a1,0(a2)
D:\42__Project__CREOSS__SW\51__Lambda\CPUFW\21__BIOS\WS\BIOS\Release/../Src/main.c:65

	sI2CS.dma_rd_start_badr = POS_BADR_HRDP;	// rx_dma ( DMEM0->DMA->sI2CS ), Host reads
    234c:	1f800513          	li	a0,504
    2350:	c248                	sw	a0,4(a2)
D:\42__Project__CREOSS__SW\51__Lambda\CPUFW\21__BIOS\WS\BIOS\Release/../Src/main.c:66
	sI2CS.dma_wr_start_badr = POS_BADR_HWDP;	// tx_dma ( sI2CS->DMA->DMEM0 ), Host writes
    2352:	0807a423          	sw	zero,136(a5)
D:\42__Project__CREOSS__SW\51__Lambda\CPUFW\21__BIOS\WS\BIOS\Release/../Src/main.c:68

	sI2CS.ctrl_st = I2CS_CTRL_ST_DEV_EN;
    2356:	cb94                	sw	a3,16(a5)
D:\42__Project__CREOSS__SW\51__Lambda\CPUFW\21__BIOS\WS\BIOS\Release/../Src/main.c:70

	sI2CS.dma_en  =   I2CS_DMA_EN_RD
    2358:	c20c                	sw	a1,0(a2)
D:\42__Project__CREOSS__SW\51__Lambda\CPUFW\21__BIOS\WS\BIOS\Release/../Src/main.c:75
			| I2CS_DMA_EN_WR ; 


	//--	DMAC
	sDMAC.ctrl_ac = DMAC_CTRL_AC_BLK_RST;
    235a:	810107b7          	lui	a5,0x81010
    235e:	cbd4                	sw	a3,20(a5)
D:\42__Project__CREOSS__SW\51__Lambda\CPUFW\21__BIOS\WS\BIOS\Release/../Src/main.c:76
	macro_nop_x4 ( );
    2360:	0001                	nop
    2362:	0001                	nop
    2364:	0001                	nop
    2366:	0001                	nop
D:\42__Project__CREOSS__SW\51__Lambda\CPUFW\21__BIOS\WS\BIOS\Release/../Src/main.c:83
	sDMAC.rch_src_sel = 	  DMAC_RCH0_SRC_SEL_0_I2CS
				| DMAC_RCH1_SRC_SEL_0_SPIS
				| DMAC_RCH2_SRC_SEL_0_USBD
				| DMAC_RCH3_SRC_SEL_0_UART;

	sDMAC.flow_ctrl =	  DMAC_FLOW_CTRL_RCH0_TCH1_EN	
    2368:	0f000693          	li	a3,240
D:\42__Project__CREOSS__SW\51__Lambda\CPUFW\21__BIOS\WS\BIOS\Release/../Src/main.c:78
	sDMAC.rch_src_sel = 	  DMAC_RCH0_SRC_SEL_0_I2CS
    236c:	0007ae23          	sw	zero,28(a5) # 8101001c <_ctype_+0xfff3fcc4>
D:\42__Project__CREOSS__SW\51__Lambda\CPUFW\21__BIOS\WS\BIOS\Release/../Src/main.c:83
	sDMAC.flow_ctrl =	  DMAC_FLOW_CTRL_RCH0_TCH1_EN	
    2370:	cf94                	sw	a3,24(a5)
D:\42__Project__CREOSS__SW\51__Lambda\CPUFW\21__BIOS\WS\BIOS\Release/../Src/main.c:88
				| DMAC_FLOW_CTRL_RCH1_TCH1_EN	
				| DMAC_FLOW_CTRL_RCH2_TCH1_EN	
				| DMAC_FLOW_CTRL_RCH3_TCH1_EN;

	sDMAC.RCH0_MAX_TRANS_CYCLE	= 0xFFFF;
    2372:	c3b8                	sw	a4,64(a5)
D:\42__Project__CREOSS__SW\51__Lambda\CPUFW\21__BIOS\WS\BIOS\Release/../Src/main.c:89
	sDMAC.RCH0_MAX_RUN_CYCLE	= 0xFFFF;
    2374:	c3f8                	sw	a4,68(a5)
D:\42__Project__CREOSS__SW\51__Lambda\CPUFW\21__BIOS\WS\BIOS\Release/../Src/main.c:90
	sDMAC.RCH1_MAX_TRANS_CYCLE	= 0xFFFF;
    2376:	c7b8                	sw	a4,72(a5)
D:\42__Project__CREOSS__SW\51__Lambda\CPUFW\21__BIOS\WS\BIOS\Release/../Src/main.c:91
	sDMAC.RCH1_MAX_RUN_CYCLE	= 0xFFFF;
    2378:	c7f8                	sw	a4,76(a5)
D:\42__Project__CREOSS__SW\51__Lambda\CPUFW\21__BIOS\WS\BIOS\Release/../Src/main.c:92
	sDMAC.RCH2_MAX_TRANS_CYCLE	= 0xFFFF;
    237a:	cbb8                	sw	a4,80(a5)
D:\42__Project__CREOSS__SW\51__Lambda\CPUFW\21__BIOS\WS\BIOS\Release/../Src/main.c:93
	sDMAC.RCH2_MAX_RUN_CYCLE	= 0xFFFF;
    237c:	cbf8                	sw	a4,84(a5)
D:\42__Project__CREOSS__SW\51__Lambda\CPUFW\21__BIOS\WS\BIOS\Release/../Src/main.c:94
	sDMAC.RCH3_MAX_TRANS_CYCLE	= 0xFFFF;
    237e:	cfb8                	sw	a4,88(a5)
D:\42__Project__CREOSS__SW\51__Lambda\CPUFW\21__BIOS\WS\BIOS\Release/../Src/main.c:95
	sDMAC.RCH3_MAX_RUN_CYCLE	= 0xFFFF;
    2380:	cff8                	sw	a4,92(a5)
D:\42__Project__CREOSS__SW\51__Lambda\CPUFW\21__BIOS\WS\BIOS\Release/../Src/main.c:98

	//--	GPIO
	sGPIO.int_msk          = 0xFFFFFFFF;					// turn-off all interrupts
    2382:	803007b7          	lui	a5,0x80300
    2386:	577d                	li	a4,-1
    2388:	c398                	sw	a4,0(a5)
D:\42__Project__CREOSS__SW\51__Lambda\CPUFW\21__BIOS\WS\BIOS\Release/../Src/main.c:99
	sGPIO.gpoe_a           = 0x0000000;					// GPOE_A = 0
    238a:	0c07a023          	sw	zero,192(a5) # 803000c0 <_ctype_+0xff22fd68>
D:\42__Project__CREOSS__SW\51__Lambda\CPUFW\21__BIOS\WS\BIOS\Release/../Src/main.c:100
	sGPIO.gpoe_b           = 0x0000000;					// GPOE_B = 0
    238e:	0c07a223          	sw	zero,196(a5)
D:\42__Project__CREOSS__SW\51__Lambda\CPUFW\21__BIOS\WS\BIOS\Release/../Src/main.c:101
	sGPIO.gpoe_c           = 0x0000000;					// GPOE_C = 0
    2392:	0c07a423          	sw	zero,200(a5)
D:\42__Project__CREOSS__SW\51__Lambda\CPUFW\21__BIOS\WS\BIOS\Release/../Src/main.c:102
	sGPIO.gpoe_d           = 0x0000000;					// GPOE_D = 0
    2396:	0c07a623          	sw	zero,204(a5)
D:\42__Project__CREOSS__SW\51__Lambda\CPUFW\21__BIOS\WS\BIOS\Release/../Src/main.c:103
	sGPIO.gpoe_e           = 0x0000000;					// GPOE_E = 0
    239a:	0c07a823          	sw	zero,208(a5)
D:\42__Project__CREOSS__SW\51__Lambda\CPUFW\21__BIOS\WS\BIOS\Release/../Src/main.c:104
	sGPIO.gpoe_f           = 0x0000000;					// GPOE_F = 0
    239e:	0c07aa23          	sw	zero,212(a5)
D:\42__Project__CREOSS__SW\51__Lambda\CPUFW\21__BIOS\WS\BIOS\Release/../Src/main.c:105
	sGPIO.gpoe_g           = 0x0000000;					// GPOE_G = 0
    23a2:	0c07ac23          	sw	zero,216(a5)
D:\42__Project__CREOSS__SW\51__Lambda\CPUFW\21__BIOS\WS\BIOS\Release/../Src/main.c:106
	sGPIO.gpoe_h           = 0x0000000;					// GPOE_H = 0
    23a6:	0c07ae23          	sw	zero,220(a5)
D:\42__Project__CREOSS__SW\51__Lambda\CPUFW\21__BIOS\WS\BIOS\Release/../Src/main.c:107
	sGPIO.gpoe_i           = 0x0000000;					// GPOE_I = 0
    23aa:	0e07a023          	sw	zero,224(a5)
D:\42__Project__CREOSS__SW\51__Lambda\CPUFW\21__BIOS\WS\BIOS\Release/../Src/main.c:108
	sGPIO.gpi_a_pos_wu_sel = 0x00000000;					// turn-off all wake-up
    23ae:	0007ac23          	sw	zero,24(a5)
D:\42__Project__CREOSS__SW\51__Lambda\CPUFW\21__BIOS\WS\BIOS\Release/../Src/main.c:109
	sGPIO.gpi_b_neg_wu_sel = 0x00000000;					// turn-off all wake-up
    23b2:	0007ae23          	sw	zero,28(a5)
D:\42__Project__CREOSS__SW\51__Lambda\CPUFW\21__BIOS\WS\BIOS\Release/../Src/main.c:110
	sGPIO.ctrl_st          = GPIO_GPI_A_SYNC_EN | GPIO_GPI_B_SYNC_EN;	// Enable GPIO A B Input
    23b6:	cb8c                	sw	a1,16(a5)
D:\42__Project__CREOSS__SW\51__Lambda\CPUFW\21__BIOS\WS\BIOS\Release/../Src/main.c:122

	// CSR init :

	// interrupt configuration
	//csr_write(mficfg, 0xffffffff);		// level interrupt, high active
	csr_write(0xBD7, 0xffffffff);		// level interrupt, high active
    23b8:	bd771073          	csrw	0xbd7,a4
D:\42__Project__CREOSS__SW\51__Lambda\CPUFW\21__BIOS\WS\BIOS\Release/../Src/main.c:126

	// interrupt clear
	//csr_write(mcintclear, 0x1);			// clear pending interrupt
	csr_write(0xBD0, 0x1);			// clear pending interrupt
    23bc:	bd00d073          	csrwi	0xbd0,1
D:\42__Project__CREOSS__SW\51__Lambda\CPUFW\21__BIOS\WS\BIOS\Release/../Src/main.c:129

	// custom interrupt : fast interrupt vector enable
	csr_int_init_fast_int_vector();
    23c0:	d7aff0ef          	jal	ra,193a <csr_int_init_fast_int_vector>
D:\42__Project__CREOSS__SW\51__Lambda\CPUFW\21__BIOS\WS\BIOS\Release/../Src/main.c:132

	// interrupt enable : MFIE_00, MEIE
	csr_write(mie, (CSR_MIE_MFIE_ALL + CSR_MIE_MEIE));
    23c4:	77c5                	lui	a5,0xffff1
    23c6:	80078793          	addi	a5,a5,-2048 # ffff0800 <_ctype_+0x7ef204a8>
    23ca:	30479073          	csrw	mie,a5
D:\42__Project__CREOSS__SW\51__Lambda\CPUFW\21__BIOS\WS\BIOS\Release/../Src/main.c:135

	// global interrupt enable
	csr_glb_int_enable ( );
    23ce:	30046073          	csrsi	mstatus,8
D:\42__Project__CREOSS__SW\51__Lambda\CPUFW\21__BIOS\WS\BIOS\Release/../Src/main.c:142

	//----------------------------------------------------------------------------------------------------
	//--	Jump to main_bios ( ) 
	//----------------------------------------------------------------------------------------------------

	main_bios ( );
    23d2:	2029                	jal	23dc <main_bios>
D:\42__Project__CREOSS__SW\51__Lambda\CPUFW\21__BIOS\WS\BIOS\Release/../Src/main.c:145

	return 0;
}
    23d4:	40b2                	lw	ra,12(sp)
    23d6:	4501                	li	a0,0
    23d8:	0141                	addi	sp,sp,16
    23da:	8082                	ret

Disassembly of section .text.main_bios:

000023dc <main_bios>:
main_bios():
D:\42__Project__CREOSS__SW\51__Lambda\CPUFW\21__BIOS\WS\BIOS\Release/../Src/main_bios.c:35
 * @bug	
 * @todo	
 * @warning	
 * @see	
*///----------------------------------------------------------------------------------------------------------------------
__att_noinline__	void	main_bios ( ) {
    23dc:	7139                	addi	sp,sp,-64
    23de:	dc22                	sw	s0,56(sp)
    23e0:	da26                	sw	s1,52(sp)
    23e2:	d84a                	sw	s2,48(sp)
    23e4:	de06                	sw	ra,60(sp)
    23e6:	d64e                	sw	s3,44(sp)
    23e8:	d452                	sw	s4,40(sp)
    23ea:	d256                	sw	s5,36(sp)
    23ec:	d05a                	sw	s6,32(sp)
    23ee:	ce5e                	sw	s7,28(sp)
    23f0:	cc62                	sw	s8,24(sp)
    23f2:	ca66                	sw	s9,20(sp)
    23f4:	c86a                	sw	s10,16(sp)
    23f6:	c66e                	sw	s11,12(sp)
D:\42__Project__CREOSS__SW\51__Lambda\CPUFW\21__BIOS\WS\BIOS\Release/../Src/main_bios.c:41

	unsigned long	i, j;
	uint32_t	n;
	enum	enum_res_ret		res_fwld;

	smon ( func_set_cur_func0, 0 );
    23f8:	80ff07b7          	lui	a5,0x80ff0
    23fc:	0c078023          	sb	zero,192(a5) # 80ff00c0 <_ctype_+0xfff1fd68>
D:\42__Project__CREOSS__SW\51__Lambda\CPUFW\21__BIOS\WS\BIOS\Release/../Src/main_bios.c:46

	//----------------------------------------------------------------------------------------------------
	//--	Global variables
	//----------------------------------------------------------------------------------------------------
	hwdp8   = (uint8_t  *)	(BASE_BADR_MB + POS_BADR_HWDP);	// host write data port
    2400:	40001737          	lui	a4,0x40001
    2404:	500006b7          	lui	a3,0x50000
    2408:	28d72023          	sw	a3,640(a4) # 40001280 <hwdp8>
D:\42__Project__CREOSS__SW\51__Lambda\CPUFW\21__BIOS\WS\BIOS\Release/../Src/main_bios.c:47
	hwdp16  = (uint16_t *)  hwdp8;		
    240c:	28072603          	lw	a2,640(a4)
    2410:	400017b7          	lui	a5,0x40001
D:\42__Project__CREOSS__SW\51__Lambda\CPUFW\21__BIOS\WS\BIOS\Release/../Src/main_bios.c:50
	hwdp32  = (uint32_t *)  hwdp8;		

	hrdp8   = (uint8_t  *)	(BASE_BADR_MB + POS_BADR_HRDP);	// host read  data port
    2414:	1f868693          	addi	a3,a3,504 # 500001f8 <_stack_start+0xfffe9fc>
D:\42__Project__CREOSS__SW\51__Lambda\CPUFW\21__BIOS\WS\BIOS\Release/../Src/main_bios.c:47
	hwdp16  = (uint16_t *)  hwdp8;		
    2418:	26c7a823          	sw	a2,624(a5) # 40001270 <hwdp16>
D:\42__Project__CREOSS__SW\51__Lambda\CPUFW\21__BIOS\WS\BIOS\Release/../Src/main_bios.c:48
	hwdp32  = (uint32_t *)  hwdp8;		
    241c:	28072783          	lw	a5,640(a4)
    2420:	40001637          	lui	a2,0x40001
D:\42__Project__CREOSS__SW\51__Lambda\CPUFW\21__BIOS\WS\BIOS\Release/../Src/main_bios.c:51
	hrdp16  = (uint16_t *)  hrdp8;		
    2424:	40001937          	lui	s2,0x40001
D:\42__Project__CREOSS__SW\51__Lambda\CPUFW\21__BIOS\WS\BIOS\Release/../Src/main_bios.c:48
	hwdp32  = (uint32_t *)  hwdp8;		
    2428:	26f62c23          	sw	a5,632(a2) # 40001278 <hwdp32>
D:\42__Project__CREOSS__SW\51__Lambda\CPUFW\21__BIOS\WS\BIOS\Release/../Src/main_bios.c:50
	hrdp8   = (uint8_t  *)	(BASE_BADR_MB + POS_BADR_HRDP);	// host read  data port
    242c:	400017b7          	lui	a5,0x40001
    2430:	26d7a223          	sw	a3,612(a5) # 40001264 <hrdp8>
D:\42__Project__CREOSS__SW\51__Lambda\CPUFW\21__BIOS\WS\BIOS\Release/../Src/main_bios.c:51
	hrdp16  = (uint16_t *)  hrdp8;		
    2434:	2647a683          	lw	a3,612(a5)
D:\42__Project__CREOSS__SW\51__Lambda\CPUFW\21__BIOS\WS\BIOS\Release/../Src/main_bios.c:66


	gss.buf16  = (uint16_t*) gss.buf8;
	gss.buf32  = (uint32_t*) gss.buf8;

	htst	= HTST_BIOS_BUSY;
    2438:	40001437          	lui	s0,0x40001
D:\42__Project__CREOSS__SW\51__Lambda\CPUFW\21__BIOS\WS\BIOS\Release/../Src/main_bios.c:67
	haux	= HAUX_BU_ING;
    243c:	400014b7          	lui	s1,0x40001
D:\42__Project__CREOSS__SW\51__Lambda\CPUFW\21__BIOS\WS\BIOS\Release/../Src/main_bios.c:51
	hrdp16  = (uint16_t *)  hrdp8;		
    2440:	24d92a23          	sw	a3,596(s2) # 40001254 <hrdp16>
D:\42__Project__CREOSS__SW\51__Lambda\CPUFW\21__BIOS\WS\BIOS\Release/../Src/main_bios.c:52
	hrdp32  = (uint32_t *)  hrdp8;		
    2444:	2647a583          	lw	a1,612(a5)
    2448:	400016b7          	lui	a3,0x40001
    244c:	24b6ae23          	sw	a1,604(a3) # 4000125c <hrdp32>
D:\42__Project__CREOSS__SW\51__Lambda\CPUFW\21__BIOS\WS\BIOS\Release/../Src/main_bios.c:54
	hwdp8_arg  = (uint8_t  *) (&hwdp8[4]);
    2450:	28072583          	lw	a1,640(a4)
    2454:	40001737          	lui	a4,0x40001
    2458:	0591                	addi	a1,a1,4
    245a:	28b72223          	sw	a1,644(a4) # 40001284 <hwdp8_arg>
D:\42__Project__CREOSS__SW\51__Lambda\CPUFW\21__BIOS\WS\BIOS\Release/../Src/main_bios.c:55
	hwdp16_arg = (uint16_t *) (hwdp8_arg);
    245e:	28472503          	lw	a0,644(a4)
    2462:	400015b7          	lui	a1,0x40001
    2466:	26a5aa23          	sw	a0,628(a1) # 40001274 <hwdp16_arg>
D:\42__Project__CREOSS__SW\51__Lambda\CPUFW\21__BIOS\WS\BIOS\Release/../Src/main_bios.c:56
	hwdp32_arg = (uint32_t *) (hwdp8_arg);
    246a:	28472583          	lw	a1,644(a4)
    246e:	40001737          	lui	a4,0x40001
D:\42__Project__CREOSS__SW\51__Lambda\CPUFW\21__BIOS\WS\BIOS\Release/../Src/main_bios.c:69

	for ( n=0 ; n<16 ; n++ ) {
    2472:	04000513          	li	a0,64
D:\42__Project__CREOSS__SW\51__Lambda\CPUFW\21__BIOS\WS\BIOS\Release/../Src/main_bios.c:56
	hwdp32_arg = (uint32_t *) (hwdp8_arg);
    2476:	26b72e23          	sw	a1,636(a4) # 4000127c <hwdp32_arg>
D:\42__Project__CREOSS__SW\51__Lambda\CPUFW\21__BIOS\WS\BIOS\Release/../Src/main_bios.c:58
	hrdp8_arg  = (uint8_t  *) (&hrdp8[8]);
    247a:	2647a703          	lw	a4,612(a5)
    247e:	400017b7          	lui	a5,0x40001
    2482:	0721                	addi	a4,a4,8
    2484:	26e7a423          	sw	a4,616(a5) # 40001268 <hrdp8_arg>
D:\42__Project__CREOSS__SW\51__Lambda\CPUFW\21__BIOS\WS\BIOS\Release/../Src/main_bios.c:59
	hrdp16_arg = (uint16_t *) (hrdp8_arg);
    2488:	2687a583          	lw	a1,616(a5)
    248c:	40001737          	lui	a4,0x40001
    2490:	24b72c23          	sw	a1,600(a4) # 40001258 <hrdp16_arg>
D:\42__Project__CREOSS__SW\51__Lambda\CPUFW\21__BIOS\WS\BIOS\Release/../Src/main_bios.c:60
	hrdp32_arg = (uint32_t *) (hrdp8_arg);
    2494:	2687a703          	lw	a4,616(a5)
    2498:	400017b7          	lui	a5,0x40001
    249c:	26e7a023          	sw	a4,608(a5) # 40001260 <hrdp32_arg>
D:\42__Project__CREOSS__SW\51__Lambda\CPUFW\21__BIOS\WS\BIOS\Release/../Src/main_bios.c:63
	gss.buf16  = (uint16_t*) gss.buf8;
    24a0:	400017b7          	lui	a5,0x40001
    24a4:	40001737          	lui	a4,0x40001
    24a8:	00078593          	mv	a1,a5
    24ac:	02070713          	addi	a4,a4,32 # 40001020 <gss+0x20>
    24b0:	24e5a023          	sw	a4,576(a1)
D:\42__Project__CREOSS__SW\51__Lambda\CPUFW\21__BIOS\WS\BIOS\Release/../Src/main_bios.c:64
	gss.buf32  = (uint32_t*) gss.buf8;
    24b4:	24e5a223          	sw	a4,580(a1)
D:\42__Project__CREOSS__SW\51__Lambda\CPUFW\21__BIOS\WS\BIOS\Release/../Src/main_bios.c:66
	htst	= HTST_BIOS_BUSY;
    24b8:	7771                	lui	a4,0xffffc
    24ba:	26e41623          	sh	a4,620(s0) # 4000126c <htst>
D:\42__Project__CREOSS__SW\51__Lambda\CPUFW\21__BIOS\WS\BIOS\Release/../Src/main_bios.c:67
	haux	= HAUX_BU_ING;
    24be:	776d                	lui	a4,0xffffb
    24c0:	0741                	addi	a4,a4,16
    24c2:	24e49723          	sh	a4,590(s1) # 4000124e <haux>
D:\42__Project__CREOSS__SW\51__Lambda\CPUFW\21__BIOS\WS\BIOS\Release/../Src/main_bios.c:69
	for ( n=0 ; n<16 ; n++ ) {
    24c6:	00078793          	mv	a5,a5
D:\42__Project__CREOSS__SW\51__Lambda\CPUFW\21__BIOS\WS\BIOS\Release/../Src/main_bios.c:67
	haux	= HAUX_BU_ING;
    24ca:	4701                	li	a4,0
D:\42__Project__CREOSS__SW\51__Lambda\CPUFW\21__BIOS\WS\BIOS\Release/../Src/main_bios.c:70 (discriminator 3)
	hrdp32[n] = 0x00000000;
    24cc:	25c6a583          	lw	a1,604(a3)
    24d0:	95ba                	add	a1,a1,a4
    24d2:	0005a023          	sw	zero,0(a1)
D:\42__Project__CREOSS__SW\51__Lambda\CPUFW\21__BIOS\WS\BIOS\Release/../Src/main_bios.c:71 (discriminator 3)
	hwdp32[n] = 0x00000000;			// for simulation : remove x, z 
    24d6:	27862583          	lw	a1,632(a2)
    24da:	95ba                	add	a1,a1,a4
    24dc:	0005a023          	sw	zero,0(a1)
D:\42__Project__CREOSS__SW\51__Lambda\CPUFW\21__BIOS\WS\BIOS\Release/../Src/main_bios.c:69 (discriminator 3)
	for ( n=0 ; n<16 ; n++ ) {
    24e0:	0711                	addi	a4,a4,4
    24e2:	fea715e3          	bne	a4,a0,24cc <main_bios+0xf0>
D:\42__Project__CREOSS__SW\51__Lambda\CPUFW\21__BIOS\WS\BIOS\Release/../Src/main_bios.c:73
	}
	hrdp32[1] = (htst<<16) | (haux);
    24e6:	26c45703          	lhu	a4,620(s0)
    24ea:	24e4d603          	lhu	a2,590(s1)
    24ee:	25c6a683          	lw	a3,604(a3)
    24f2:	0742                	slli	a4,a4,0x10
    24f4:	0642                	slli	a2,a2,0x10
    24f6:	8241                	srli	a2,a2,0x10
    24f8:	8f51                	or	a4,a4,a2
    24fa:	c2d8                	sw	a4,4(a3)
D:\42__Project__CREOSS__SW\51__Lambda\CPUFW\21__BIOS\WS\BIOS\Release/../Src/main_bios.c:76


	gss.mode_hintn	        = MODE_HINTN_OD;
    24fc:	0007a023          	sw	zero,0(a5) # 40001000 <gss>
D:\42__Project__CREOSS__SW\51__Lambda\CPUFW\21__BIOS\WS\BIOS\Release/../Src/main_bios.c:77
	gss.mode_hintn_assert   = MODE_HINTN_NOCHANGE_AFTER_HCMD;
    2500:	0007a223          	sw	zero,4(a5)
D:\42__Project__CREOSS__SW\51__Lambda\CPUFW\21__BIOS\WS\BIOS\Release/../Src/main_bios.c:79

	gss.opt_spim_rd         = OPT_SPIM_RD_SINGLE;
    2504:	0007a423          	sw	zero,8(a5)
D:\42__Project__CREOSS__SW\51__Lambda\CPUFW\21__BIOS\WS\BIOS\Release/../Src/main_bios.c:80
	gss.opt_spim_sclk       = OPT_SPIM_SCLK_SYS_DIV16;
    2508:	0007a623          	sw	zero,12(a5)
D:\42__Project__CREOSS__SW\51__Lambda\CPUFW\21__BIOS\WS\BIOS\Release/../Src/main_bios.c:81
	gss.opt_spim_mode_block = OPT_SPIM_BLOCK;
    250c:	0007ac23          	sw	zero,24(a5)
D:\42__Project__CREOSS__SW\51__Lambda\CPUFW\21__BIOS\WS\BIOS\Release/../Src/main_bios.c:82
	gss.opt_spim_n_rch	= OPT_SPIM_RCH1;
    2510:	0007ae23          	sw	zero,28(a5)
D:\42__Project__CREOSS__SW\51__Lambda\CPUFW\21__BIOS\WS\BIOS\Release/../Src/main_bios.c:89

	//----------------------------------------------------------------------------------------------------
	//--	Bootup Option
	//----------------------------------------------------------------------------------------------------
	//							       default
	if ( (sGPIO.gpi_b & 0x1) == 0x0 )	gss.buopt_fwld_skip  = BUOPT_FWLD_SKIP_OFF;		else gss.buopt_fwld_skip  = BUOPT_FWLD_SKIP_ON;
    2514:	80300737          	lui	a4,0x80300
    2518:	4378                	lw	a4,68(a4)
    251a:	8b05                	andi	a4,a4,1
    251c:	12071163          	bnez	a4,263e <main_bios+0x262>
D:\42__Project__CREOSS__SW\51__Lambda\CPUFW\21__BIOS\WS\BIOS\Release/../Src/main_bios.c:89 (discriminator 1)
    2520:	0007a823          	sw	zero,16(a5)
D:\42__Project__CREOSS__SW\51__Lambda\CPUFW\21__BIOS\WS\BIOS\Release/../Src/main_bios.c:90
	if ( (sGPIO.gpi_b & 0x2) == 0x0 )	gss.buopt_fw_autorun = BUOPT_FW_AUTORUN_ON;		else gss.buopt_fw_autorun = BUOPT_FW_AUTORUN_OFF;
    2524:	80300737          	lui	a4,0x80300
    2528:	4378                	lw	a4,68(a4)
    252a:	8b09                	andi	a4,a4,2
    252c:	10071c63          	bnez	a4,2644 <main_bios+0x268>
D:\42__Project__CREOSS__SW\51__Lambda\CPUFW\21__BIOS\WS\BIOS\Release/../Src/main_bios.c:90 (discriminator 1)
    2530:	4705                	li	a4,1
    2532:	cbd8                	sw	a4,20(a5)
D:\42__Project__CREOSS__SW\51__Lambda\CPUFW\21__BIOS\WS\BIOS\Release/../Src/main_bios.c:94

	res_fwld = RES_FAIL;

	if ( gss.buopt_fwld_skip==BUOPT_FWLD_SKIP_ON ) {
    2534:	4b98                	lw	a4,16(a5)
    2536:	4785                	li	a5,1
    2538:	00f70663          	beq	a4,a5,2544 <main_bios+0x168>
D:\42__Project__CREOSS__SW\51__Lambda\CPUFW\21__BIOS\WS\BIOS\Release/../Src/main_bios.c:97
		
	} else {
		res_fwld = bu_fwld ( FW_SECT_SYSCFG_SEARCH, 0x00000000 );
    253c:	4581                	li	a1,0
    253e:	4501                	li	a0,0
    2540:	d18ff0ef          	jal	ra,1a58 <bu_fwld>
D:\42__Project__CREOSS__SW\51__Lambda\CPUFW\21__BIOS\WS\BIOS\Release/../Src/main_bios.c:105
	if ( res_fwld == RES_OK ) {
		//jump_to_fw ( 0x00040000 );
	}

	//--	Memory Control Setting
	sSYSC.ctrl_st = SYSC_SR_PAD1_BY_MB | SYSC_SR_PAD2_BY_PC	;
    2544:	801007b7          	lui	a5,0x80100
    2548:	0007a823          	sw	zero,16(a5) # 80100010 <_ctype_+0xff02fcb8>
D:\42__Project__CREOSS__SW\51__Lambda\CPUFW\21__BIOS\WS\BIOS\Release/../Src/main_bios.c:110

	//----------------------------------------------------------------------------------------------------
	//--	HW, HIF ENBLE
	//----------------------------------------------------------------------------------------------------
	sI2CS.int_src = 0x00;
    254c:	81080737          	lui	a4,0x81080
    2550:	00072223          	sw	zero,4(a4) # 81080004 <_ctype_+0xfffafcac>
D:\42__Project__CREOSS__SW\51__Lambda\CPUFW\21__BIOS\WS\BIOS\Release/../Src/main_bios.c:111
	sI2CS.int_msk = 0x00 | I2CS_INT_START_DET;
    2554:	4785                	li	a5,1
    2556:	c31c                	sw	a5,0(a4)
D:\42__Project__CREOSS__SW\51__Lambda\CPUFW\21__BIOS\WS\BIOS\Release/../Src/main_bios.c:117


	//----------------------------------------------------------------------------------------------------
	//--	HW, HINTN = L
	//----------------------------------------------------------------------------------------------------
	sIOPC.hintn_oe = 0x1;
    2558:	81020737          	lui	a4,0x81020
    255c:	c37c                	sw	a5,68(a4)
D:\42__Project__CREOSS__SW\51__Lambda\CPUFW\21__BIOS\WS\BIOS\Release/../Src/main_bios.c:119

	htst	= HTST_BIOS;
    255e:	6791                	lui	a5,0x4
    2560:	26f41623          	sh	a5,620(s0)
D:\42__Project__CREOSS__SW\51__Lambda\CPUFW\21__BIOS\WS\BIOS\Release/../Src/main_bios.c:120
	haux	= HAUX_NONE;
    2564:	77ed                	lui	a5,0xffffb
    2566:	24f49723          	sh	a5,590(s1)
D:\42__Project__CREOSS__SW\51__Lambda\CPUFW\21__BIOS\WS\BIOS\Release/../Src/main_bios.c:121
	set_htst ( htst );
    256a:	25492783          	lw	a5,596(s2)
    256e:	26c45703          	lhu	a4,620(s0)
D:\42__Project__CREOSS__SW\51__Lambda\CPUFW\21__BIOS\WS\BIOS\Release/../Src/main_bios.c:127
	set_haux ( haux );



	// LED : counting
	i=0;
    2572:	4a81                	li	s5,0
D:\42__Project__CREOSS__SW\51__Lambda\CPUFW\21__BIOS\WS\BIOS\Release/../Src/main_bios.c:132
	//csr_write(mscratch, 0);

MAIN_BIOS_LOOP:

	smon ( d16[0], i );
    2574:	80ff0a37          	lui	s4,0x80ff0
D:\42__Project__CREOSS__SW\51__Lambda\CPUFW\21__BIOS\WS\BIOS\Release/../Src/main_bios.c:121
	set_htst ( htst );
    2578:	00e79223          	sh	a4,4(a5) # ffffb004 <_ctype_+0x7ef2acac>
D:\42__Project__CREOSS__SW\51__Lambda\CPUFW\21__BIOS\WS\BIOS\Release/../Src/main_bios.c:122
	set_haux ( haux );
    257c:	25492783          	lw	a5,596(s2)
    2580:	24e4d703          	lhu	a4,590(s1)
D:\42__Project__CREOSS__SW\51__Lambda\CPUFW\21__BIOS\WS\BIOS\Release/../Src/main_bios.c:137

	//------------------------------------------------------------
	//--	HCMD
	//------------------------------------------------------------
	if ( hcmd_trig == 0x1 ) {
    2584:	40001b37          	lui	s6,0x40001
    2588:	4c05                	li	s8,1
D:\42__Project__CREOSS__SW\51__Lambda\CPUFW\21__BIOS\WS\BIOS\Release/../Src/main_bios.c:122
	set_haux ( haux );
    258a:	00e79323          	sh	a4,6(a5)
D:\42__Project__CREOSS__SW\51__Lambda\CPUFW\21__BIOS\WS\BIOS\Release/../Src/main_bios.c:142

		//----------------------------------------
		//--	Intro
		//----------------------------------------
		htst = HTST_BIOS_BUSY;
    258e:	7bf1                	lui	s7,0xffffc
D:\42__Project__CREOSS__SW\51__Lambda\CPUFW\21__BIOS\WS\BIOS\Release/../Src/main_bios.c:151
		set_haux ( haux );	//hrdp16[3] = haux;

		//----------------------------------------
		//--	HCMD Parsing
		//----------------------------------------
		sclr ( d16[0], 0 );
    2590:	80fe0cb7          	lui	s9,0x80fe0
D:\42__Project__CREOSS__SW\51__Lambda\CPUFW\21__BIOS\WS\BIOS\Release/../Src/main_bios.c:152
		smon ( d16[1], 0x0100 );
    2594:	10000d13          	li	s10,256
D:\42__Project__CREOSS__SW\51__Lambda\CPUFW\21__BIOS\WS\BIOS\Release/../Src/main_bios.c:153
		smon ( d16[2], hcmd   );
    2598:	400019b7          	lui	s3,0x40001
D:\42__Project__CREOSS__SW\51__Lambda\CPUFW\21__BIOS\WS\BIOS\Release/../Src/main_bios.c:154
		smon ( d16[3], harg   );
    259c:	40001db7          	lui	s11,0x40001
D:\42__Project__CREOSS__SW\51__Lambda\CPUFW\21__BIOS\WS\BIOS\Release/../Src/main_bios.c:132
	smon ( d16[0], i );
    25a0:	010a9793          	slli	a5,s5,0x10
    25a4:	83c1                	srli	a5,a5,0x10
    25a6:	00fa1823          	sh	a5,16(s4) # 80ff0010 <_ctype_+0xfff1fcb8>
D:\42__Project__CREOSS__SW\51__Lambda\CPUFW\21__BIOS\WS\BIOS\Release/../Src/main_bios.c:137
	if ( hcmd_trig == 0x1 ) {
    25aa:	252b4783          	lbu	a5,594(s6) # 40001252 <hcmd_trig>
    25ae:	0ff7f793          	zext.b	a5,a5
    25b2:	09879463          	bne	a5,s8,263a <main_bios+0x25e>
D:\42__Project__CREOSS__SW\51__Lambda\CPUFW\21__BIOS\WS\BIOS\Release/../Src/main_bios.c:142
		htst = HTST_BIOS_BUSY;
    25b6:	27741623          	sh	s7,620(s0)
D:\42__Project__CREOSS__SW\51__Lambda\CPUFW\21__BIOS\WS\BIOS\Release/../Src/main_bios.c:143
		haux = HTST_BIOS_BUSY;
    25ba:	25749723          	sh	s7,590(s1)
D:\42__Project__CREOSS__SW\51__Lambda\CPUFW\21__BIOS\WS\BIOS\Release/../Src/main_bios.c:145
		set_htst ( htst );	//hrdp16[2] = htst;
    25be:	25492783          	lw	a5,596(s2)
    25c2:	26c45703          	lhu	a4,620(s0)
    25c6:	00e79223          	sh	a4,4(a5)
D:\42__Project__CREOSS__SW\51__Lambda\CPUFW\21__BIOS\WS\BIOS\Release/../Src/main_bios.c:146
		set_haux ( haux );	//hrdp16[3] = haux;
    25ca:	25492783          	lw	a5,596(s2)
    25ce:	24e4d703          	lhu	a4,590(s1)
    25d2:	00e79323          	sh	a4,6(a5)
D:\42__Project__CREOSS__SW\51__Lambda\CPUFW\21__BIOS\WS\BIOS\Release/../Src/main_bios.c:151
		sclr ( d16[0], 0 );
    25d6:	000c9823          	sh	zero,16(s9) # 80fe0010 <_ctype_+0xfff0fcb8>
D:\42__Project__CREOSS__SW\51__Lambda\CPUFW\21__BIOS\WS\BIOS\Release/../Src/main_bios.c:152
		smon ( d16[1], 0x0100 );
    25da:	01aa1923          	sh	s10,18(s4)
D:\42__Project__CREOSS__SW\51__Lambda\CPUFW\21__BIOS\WS\BIOS\Release/../Src/main_bios.c:153
		smon ( d16[2], hcmd   );
    25de:	2509d783          	lhu	a5,592(s3) # 40001250 <hcmd>
    25e2:	07c2                	slli	a5,a5,0x10
    25e4:	83c1                	srli	a5,a5,0x10
    25e6:	00fa1a23          	sh	a5,20(s4)
D:\42__Project__CREOSS__SW\51__Lambda\CPUFW\21__BIOS\WS\BIOS\Release/../Src/main_bios.c:154
		smon ( d16[3], harg   );
    25ea:	24cdd783          	lhu	a5,588(s11) # 4000124c <harg>
    25ee:	07c2                	slli	a5,a5,0x10
    25f0:	83c1                	srli	a5,a5,0x10
    25f2:	00fa1b23          	sh	a5,22(s4)
D:\42__Project__CREOSS__SW\51__Lambda\CPUFW\21__BIOS\WS\BIOS\Release/../Src/main_bios.c:156

		if	(hcmd==0x0000)	{	                        	}
    25f6:	2509d783          	lhu	a5,592(s3)
    25fa:	07c2                	slli	a5,a5,0x10
    25fc:	83c1                	srli	a5,a5,0x10
    25fe:	cb91                	beqz	a5,2612 <main_bios+0x236>
D:\42__Project__CREOSS__SW\51__Lambda\CPUFW\21__BIOS\WS\BIOS\Release/../Src/main_bios.c:157
		else if	(hcmd==0x0002)	{	BIOS_HCMD_CLEAR_INT ( );	}
    2600:	2509d783          	lhu	a5,592(s3)
    2604:	4709                	li	a4,2
    2606:	07c2                	slli	a5,a5,0x10
    2608:	83c1                	srli	a5,a5,0x10
    260a:	04e79063          	bne	a5,a4,264a <main_bios+0x26e>
D:\42__Project__CREOSS__SW\51__Lambda\CPUFW\21__BIOS\WS\BIOS\Release/../Src/main_bios.c:157 (discriminator 1)
    260e:	ee2ff0ef          	jal	ra,1cf0 <BIOS_HCMD_CLEAR_INT>
D:\42__Project__CREOSS__SW\51__Lambda\CPUFW\21__BIOS\WS\BIOS\Release/../Src/main_bios.c:166
		else if	(hcmd==0x000E)	{	BIOS_HCMD_EVAL      ( );	}

		//----------------------------------------
		//--	After HCMD Service
		//----------------------------------------
		htst = HTST_BIOS;
    2612:	6791                	lui	a5,0x4
    2614:	26f41623          	sh	a5,620(s0)
D:\42__Project__CREOSS__SW\51__Lambda\CPUFW\21__BIOS\WS\BIOS\Release/../Src/main_bios.c:167
		haux = HAUX_NONE;
    2618:	77ed                	lui	a5,0xffffb
    261a:	24f49723          	sh	a5,590(s1)
D:\42__Project__CREOSS__SW\51__Lambda\CPUFW\21__BIOS\WS\BIOS\Release/../Src/main_bios.c:169

		hrdp16[2] = htst;
    261e:	25492783          	lw	a5,596(s2)
    2622:	26c45703          	lhu	a4,620(s0)
    2626:	00e79223          	sh	a4,4(a5) # ffffb004 <_ctype_+0x7ef2acac>
D:\42__Project__CREOSS__SW\51__Lambda\CPUFW\21__BIOS\WS\BIOS\Release/../Src/main_bios.c:170
		hrdp16[3] = haux;
    262a:	25492783          	lw	a5,596(s2)
    262e:	24e4d703          	lhu	a4,590(s1)
D:\42__Project__CREOSS__SW\51__Lambda\CPUFW\21__BIOS\WS\BIOS\Release/../Src/main_bios.c:172

		hcmd_trig = 0x0000;
    2632:	240b0923          	sb	zero,594(s6)
D:\42__Project__CREOSS__SW\51__Lambda\CPUFW\21__BIOS\WS\BIOS\Release/../Src/main_bios.c:170
		hrdp16[3] = haux;
    2636:	00e79323          	sh	a4,6(a5)
D:\42__Project__CREOSS__SW\51__Lambda\CPUFW\21__BIOS\WS\BIOS\Release/../Src/main_bios.c:196

	//	// invoking stack corruption
	//	set_mem(DM_STACK_START_BADR, 0x12345678);		// stack corruption
	//}

	i++;
    263a:	0a85                	addi	s5,s5,1
D:\42__Project__CREOSS__SW\51__Lambda\CPUFW\21__BIOS\WS\BIOS\Release/../Src/main_bios.c:198

	goto	MAIN_BIOS_LOOP;
    263c:	b795                	j	25a0 <main_bios+0x1c4>
D:\42__Project__CREOSS__SW\51__Lambda\CPUFW\21__BIOS\WS\BIOS\Release/../Src/main_bios.c:89 (discriminator 2)
	if ( (sGPIO.gpi_b & 0x1) == 0x0 )	gss.buopt_fwld_skip  = BUOPT_FWLD_SKIP_OFF;		else gss.buopt_fwld_skip  = BUOPT_FWLD_SKIP_ON;
    263e:	4705                	li	a4,1
    2640:	cb98                	sw	a4,16(a5)
    2642:	b5cd                	j	2524 <main_bios+0x148>
D:\42__Project__CREOSS__SW\51__Lambda\CPUFW\21__BIOS\WS\BIOS\Release/../Src/main_bios.c:90 (discriminator 2)
	if ( (sGPIO.gpi_b & 0x2) == 0x0 )	gss.buopt_fw_autorun = BUOPT_FW_AUTORUN_ON;		else gss.buopt_fw_autorun = BUOPT_FW_AUTORUN_OFF;
    2644:	0007aa23          	sw	zero,20(a5)
    2648:	b5f5                	j	2534 <main_bios+0x158>
D:\42__Project__CREOSS__SW\51__Lambda\CPUFW\21__BIOS\WS\BIOS\Release/../Src/main_bios.c:158
		else if	(hcmd==0x0004)	{	BIOS_HCMD_RUN_CPU   ( );	}
    264a:	2509d783          	lhu	a5,592(s3)
    264e:	4711                	li	a4,4
    2650:	07c2                	slli	a5,a5,0x10
    2652:	83c1                	srli	a5,a5,0x10
    2654:	00e79563          	bne	a5,a4,265e <main_bios+0x282>
D:\42__Project__CREOSS__SW\51__Lambda\CPUFW\21__BIOS\WS\BIOS\Release/../Src/main_bios.c:158 (discriminator 1)
    2658:	f42ff0ef          	jal	ra,1d9a <BIOS_HCMD_RUN_CPU>
    265c:	bf5d                	j	2612 <main_bios+0x236>
D:\42__Project__CREOSS__SW\51__Lambda\CPUFW\21__BIOS\WS\BIOS\Release/../Src/main_bios.c:159
		else if	(hcmd==0x0006)	{	BIOS_HCMD_ACC_REG   ( );	}
    265e:	2509d783          	lhu	a5,592(s3)
    2662:	4719                	li	a4,6
    2664:	07c2                	slli	a5,a5,0x10
    2666:	83c1                	srli	a5,a5,0x10
    2668:	00e79463          	bne	a5,a4,2670 <main_bios+0x294>
D:\42__Project__CREOSS__SW\51__Lambda\CPUFW\21__BIOS\WS\BIOS\Release/../Src/main_bios.c:159 (discriminator 1)
    266c:	30a5                	jal	1ed4 <BIOS_HCMD_ACC_REG>
    266e:	b755                	j	2612 <main_bios+0x236>
D:\42__Project__CREOSS__SW\51__Lambda\CPUFW\21__BIOS\WS\BIOS\Release/../Src/main_bios.c:160
		else if	(hcmd==0x0008)	{	BIOS_HCMD_SE        ( );	}
    2670:	2509d783          	lhu	a5,592(s3)
    2674:	4721                	li	a4,8
    2676:	07c2                	slli	a5,a5,0x10
    2678:	83c1                	srli	a5,a5,0x10
    267a:	00e79463          	bne	a5,a4,2682 <main_bios+0x2a6>
D:\42__Project__CREOSS__SW\51__Lambda\CPUFW\21__BIOS\WS\BIOS\Release/../Src/main_bios.c:160 (discriminator 1)
    267e:	342d                	jal	20a8 <BIOS_HCMD_SE>
    2680:	bf49                	j	2612 <main_bios+0x236>
D:\42__Project__CREOSS__SW\51__Lambda\CPUFW\21__BIOS\WS\BIOS\Release/../Src/main_bios.c:161
		else if	(hcmd==0x000E)	{	BIOS_HCMD_EVAL      ( );	}
    2682:	2509d783          	lhu	a5,592(s3)
    2686:	4739                	li	a4,14
    2688:	07c2                	slli	a5,a5,0x10
    268a:	83c1                	srli	a5,a5,0x10
    268c:	f8e793e3          	bne	a5,a4,2612 <main_bios+0x236>
D:\42__Project__CREOSS__SW\51__Lambda\CPUFW\21__BIOS\WS\BIOS\Release/../Src/main_bios.c:161 (discriminator 1)
    2690:	34b5                	jal	20fc <BIOS_HCMD_EVAL>
    2692:	b741                	j	2612 <main_bios+0x236>

Disassembly of section .text.strnlen:

00002694 <strnlen>:
strnlen():
    2694:	95aa                	add	a1,a1,a0
    2696:	87aa                	mv	a5,a0
    2698:	00b78563          	beq	a5,a1,26a2 <strnlen+0xe>
    269c:	0007c703          	lbu	a4,0(a5)
    26a0:	e701                	bnez	a4,26a8 <strnlen+0x14>
    26a2:	40a78533          	sub	a0,a5,a0
    26a6:	8082                	ret
    26a8:	0785                	addi	a5,a5,1
    26aa:	b7fd                	j	2698 <strnlen+0x4>
